TN:
SF:/home/atcsol/git/proyectofinal2.0/uah_photsat_freertos/asw/components/ccbkgtcexec/src/CCBKGTCExecS.cpp
FN:13,_ZN11CCBKGTCExecC2Ejj15TEDROOMPriorityjPNS_13CEDROOMMemoryE
FNDA:1,_ZN11CCBKGTCExecC2Ejj15TEDROOMPriorityjPNS_13CEDROOMMemoryE
FN:41,_ZN11CCBKGTCExec12EDROOMConfigEv
FNDA:0,_ZN11CCBKGTCExec12EDROOMConfigEv
FN:52,_ZN11CCBKGTCExec11EDROOMStartEv
FNDA:1,_ZN11CCBKGTCExec11EDROOMStartEv
FN:73,_ZN11CCBKGTCExec15EDROOMBehaviourEv
FNDA:1,_ZN11CCBKGTCExec15EDROOMBehaviourEv
FN:102,_ZN11CCBKGTCExec13CEDROOMMemory9SetMemoryEjP14CEDROOMMessagePbjPN12CEDROOMQueue10CQueueNodeES3_
FNDA:1,_ZN11CCBKGTCExec13CEDROOMMemory9SetMemoryEjP14CEDROOMMessagePbjPN12CEDROOMQueue10CQueueNodeES3_
DA:13,1
DA:17,1
DA:24,1
DA:30,1
DA:41,0
DA:45,0
DA:52,1
DA:58,1
DA:60,1
DA:73,1
DA:76,1
DA:77,1
DA:79,0
DA:102,1
DA:110,1
DA:111,1
DA:114,1
end_of_record
SF:/home/atcsol/git/proyectofinal2.0/uah_photsat_freertos/asw/components/ccbkgtcexec/include/public/ccbkgtcexec_iface_v1.h
end_of_record
TN:
SF:/home/atcsol/git/proyectofinal2.0/uah_photsat_freertos/asw/components/ccbkgtcexec/src/CCBKGTCExecB.cpp
FN:13,_ZN11CCBKGTCExec16EDROOM_CTX_Top_0C2ERS_
FNDA:1,_ZN11CCBKGTCExec16EDROOM_CTX_Top_0C2ERS_
FN:22,_ZN11CCBKGTCExec16EDROOM_CTX_Top_0C2ERS0_
FNDA:0,_ZN11CCBKGTCExec16EDROOM_CTX_Top_0C2ERS0_
FN:34,_ZN11CCBKGTCExec16EDROOM_CTX_Top_024EDROOMSearchContextTransER14TEDROOMTransId
FNDA:0,_ZN11CCBKGTCExec16EDROOM_CTX_Top_024EDROOMSearchContextTransER14TEDROOMTransId
FN:58,_ZN11CCBKGTCExec16EDROOM_CTX_Top_010FExecBKGTCEv
FNDA:0,_ZN11CCBKGTCExec16EDROOM_CTX_Top_010FExecBKGTCEv
FN:87,_ZN11CCBKGTCExec16EDROOM_SUB_Top_0C2ERS_
FNDA:1,_ZN11CCBKGTCExec16EDROOM_SUB_Top_0C2ERS_
FN:95,_ZN11CCBKGTCExec16EDROOM_SUB_Top_015EDROOMBehaviourEv
FNDA:1,_ZN11CCBKGTCExec16EDROOM_SUB_Top_015EDROOMBehaviourEv
FN:154,_ZN11CCBKGTCExec16EDROOM_SUB_Top_010EDROOMInitEv
FNDA:1,_ZN11CCBKGTCExec16EDROOM_SUB_Top_010EDROOMInitEv
FN:171,_ZN11CCBKGTCExec16EDROOM_SUB_Top_014EDROOMIArrivalEv
FNDA:1,_ZN11CCBKGTCExec16EDROOM_SUB_Top_014EDROOMIArrivalEv
FN:193,_ZN11CCBKGTCExec16EDROOM_SUB_Top_018EDROOMReadyArrivalEv
FNDA:1,_ZN11CCBKGTCExec16EDROOM_SUB_Top_018EDROOMReadyArrivalEv
DA:13,1
DA:16,1
DA:17,1
DA:18,1
DA:20,1
DA:22,0
DA:24,0
DA:25,0
DA:26,0
DA:27,0
DA:30,0
DA:34,0
DA:38,0
DA:40,0
DA:43,0
DA:45,0
DA:46,0
DA:47,0
DA:48,0
DA:52,0
DA:58,0
DA:62,0
DA:67,0
DA:69,0
DA:87,1
DA:88,1
DA:91,1
DA:95,1
DA:102,1
DA:104,0
DA:109,1
DA:113,1
DA:115,1
DA:116,1
DA:118,0
DA:120,0
DA:122,0
DA:123,0
DA:127,1
DA:131,0
DA:133,0
DA:134,0
DA:137,1
DA:139,1
DA:140,0
DA:144,0
DA:146,0
DA:148,0
DA:154,1
DA:157,1
DA:159,1
DA:171,1
DA:177,1
DA:178,1
DA:179,1
DA:193,1
DA:198,1
DA:200,0
DA:203,1
DA:205,0
DA:208,0
DA:210,0
DA:214,0
DA:215,0
DA:216,0
DA:219,0
DA:223,0
DA:225,0
DA:229,0
DA:231,0
end_of_record
SF:/home/atcsol/git/proyectofinal2.0/uah_photsat_freertos/asw/components/ccbkgtcexec/include/public/ccbkgtcexec_iface_v1.h
FN:195,_ZN11CCBKGTCExec16EDROOM_CTX_Top_016EDROOMNewMessageEv
FNDA:1,_ZN11CCBKGTCExec16EDROOM_CTX_Top_016EDROOMNewMessageEv
DA:195,1
DA:196,1
end_of_record
TN:
SF:/home/atcsol/git/proyectofinal2.0/uah_photsat_freertos/asw/components/ccobsmng/src/CCObsMngS.cpp
FN:13,_ZN8CCObsMngC2Ejj15TEDROOMPriorityjPNS_13CEDROOMMemoryE
FNDA:1,_ZN8CCObsMngC2Ejj15TEDROOMPriorityjPNS_13CEDROOMMemoryE
FN:50,_ZN8CCObsMng12EDROOMConfigEv
FNDA:0,_ZN8CCObsMng12EDROOMConfigEv
FN:61,_ZN8CCObsMng11EDROOMStartEv
FNDA:1,_ZN8CCObsMng11EDROOMStartEv
FN:86,_ZN8CCObsMng15EDROOMBehaviourEv
FNDA:1,_ZN8CCObsMng15EDROOMBehaviourEv
FN:115,_ZN8CCObsMng13CEDROOMMemory9SetMemoryEjP14CEDROOMMessagePbjPN12CEDROOMQueue10CQueueNodeES3_
FNDA:1,_ZN8CCObsMng13CEDROOMMemory9SetMemoryEjP14CEDROOMMessagePbjPN12CEDROOMQueue10CQueueNodeES3_
DA:13,1
DA:17,1
DA:33,1
DA:39,1
DA:50,0
DA:54,0
DA:61,1
DA:67,1
DA:71,1
DA:73,1
DA:86,1
DA:89,1
DA:90,1
DA:92,0
DA:115,1
DA:123,1
DA:124,1
DA:126,1
DA:129,1
end_of_record
SF:/home/atcsol/git/proyectofinal2.0/uah_photsat_freertos/service_libraries/edroomsl/edroomsl/include/edroomsl/edroomsl.h
end_of_record
SF:/home/atcsol/git/proyectofinal2.0/uah_photsat_freertos/service_libraries/edroomsl/edroombp/include/public/edroombp.h
FN:192,_ZN12Pr_SemaphoreD2Ev
FNDA:0,_ZN12Pr_SemaphoreD2Ev
FN:261,_ZN15Pr_SemaphoreBinD2Ev
FNDA:0,_ZN15Pr_SemaphoreBinD2Ev
FN:337,_ZN15Pr_SemaphoreRecD2Ev
FNDA:0,_ZN15Pr_SemaphoreRecD2Ev
FN:533,_ZN7Pr_TaskD2Ev
FNDA:0,_ZN7Pr_TaskD2Ev
DA:192,0
DA:193,0
DA:194,0
DA:195,0
DA:261,0
DA:262,0
DA:264,0
DA:337,0
DA:533,0
DA:534,0
DA:536,0
end_of_record
SF:/home/atcsol/git/proyectofinal2.0/uah_photsat_freertos/asw/components/ccobsmng/include/public/ccobsmng_iface_v1.h
end_of_record
TN:
SF:/home/atcsol/git/proyectofinal2.0/uah_photsat_freertos/asw/components/ccobsmng/include/public/ccobsmng_iface_v1.h
FN:243,_ZN8CCObsMng16EDROOM_CTX_Top_016EDROOMNewMessageEv
FNDA:1274,_ZN8CCObsMng16EDROOM_CTX_Top_016EDROOMNewMessageEv
DA:243,1274
DA:244,1274
end_of_record
SF:/home/atcsol/git/proyectofinal2.0/uah_photsat_freertos/asw/components/ccobsmng/src/CCObsMngB.cpp
FN:13,_ZN8CCObsMng16EDROOM_CTX_Top_0C2ERS_R7Pr_Time
FNDA:1,_ZN8CCObsMng16EDROOM_CTX_Top_0C2ERS_R7Pr_Time
FN:27,_ZN8CCObsMng16EDROOM_CTX_Top_0C2ERS0_
FNDA:0,_ZN8CCObsMng16EDROOM_CTX_Top_0C2ERS0_
FN:43,_ZN8CCObsMng16EDROOM_CTX_Top_024EDROOMSearchContextTransER14TEDROOMTransId
FNDA:0,_ZN8CCObsMng16EDROOM_CTX_Top_024EDROOMSearchContextTransER14TEDROOMTransId
FN:67,_ZN8CCObsMng16EDROOM_CTX_Top_015FDoAttitudeCtrlEv
FNDA:1265,_ZN8CCObsMng16EDROOM_CTX_Top_015FDoAttitudeCtrlEv
FN:77,_ZN8CCObsMng16EDROOM_CTX_Top_015FEndObservationEv
FNDA:1,_ZN8CCObsMng16EDROOM_CTX_Top_015FEndObservationEv
FN:88,_ZN8CCObsMng16EDROOM_CTX_Top_014FExecObsMng_TCEv
FNDA:1,_ZN8CCObsMng16EDROOM_CTX_Top_014FExecObsMng_TCEv
FN:101,_ZN8CCObsMng16EDROOM_CTX_Top_05FInitEv
FNDA:1,_ZN8CCObsMng16EDROOM_CTX_Top_05FInitEv
FN:119,_ZN8CCObsMng16EDROOM_CTX_Top_017FProgAttitudeCtrlEv
FNDA:1265,_ZN8CCObsMng16EDROOM_CTX_Top_017FProgAttitudeCtrlEv
FN:139,_ZN8CCObsMng16EDROOM_CTX_Top_014FProgTakeImageEv
FNDA:7,_ZN8CCObsMng16EDROOM_CTX_Top_014FProgTakeImageEv
FN:156,_ZN8CCObsMng16EDROOM_CTX_Top_010FTakeImageEv
FNDA:7,_ZN8CCObsMng16EDROOM_CTX_Top_010FTakeImageEv
FN:166,_ZN8CCObsMng16EDROOM_CTX_Top_014FToObservationEv
FNDA:1,_ZN8CCObsMng16EDROOM_CTX_Top_014FToObservationEv
FN:176,_ZN8CCObsMng16EDROOM_CTX_Top_010GLastImageEv
FNDA:7,_ZN8CCObsMng16EDROOM_CTX_Top_010GLastImageEv
FN:186,_ZN8CCObsMng16EDROOM_CTX_Top_019GReadyToObservationEv
FNDA:1265,_ZN8CCObsMng16EDROOM_CTX_Top_019GReadyToObservationEv
FN:210,_ZN8CCObsMng16EDROOM_SUB_Top_0C2ERS_
FNDA:1,_ZN8CCObsMng16EDROOM_SUB_Top_0C2ERS_
FN:219,_ZN8CCObsMng16EDROOM_SUB_Top_015EDROOMBehaviourEv
FNDA:1,_ZN8CCObsMng16EDROOM_SUB_Top_015EDROOMBehaviourEv
FN:351,_ZN8CCObsMng16EDROOM_SUB_Top_010EDROOMInitEv
FNDA:1,_ZN8CCObsMng16EDROOM_SUB_Top_010EDROOMInitEv
FN:368,_ZN8CCObsMng16EDROOM_SUB_Top_014EDROOMIArrivalEv
FNDA:1,_ZN8CCObsMng16EDROOM_SUB_Top_014EDROOMIArrivalEv
FN:390,_ZN8CCObsMng16EDROOM_SUB_Top_020EDROOMStandbyArrivalEv
FNDA:1267,_ZN8CCObsMng16EDROOM_SUB_Top_020EDROOMStandbyArrivalEv
FN:455,_ZN8CCObsMng16EDROOM_SUB_Top_024EDROOMObservationArrivalEv
FNDA:7,_ZN8CCObsMng16EDROOM_SUB_Top_024EDROOMObservationArrivalEv
DA:13,1
DA:14,1
DA:17,1
DA:18,1
DA:19,1
DA:20,1
DA:21,1
DA:23,1
DA:25,1
DA:27,0
DA:29,0
DA:30,0
DA:31,0
DA:32,0
DA:33,0
DA:34,0
DA:36,0
DA:39,0
DA:43,0
DA:47,0
DA:49,0
DA:52,0
DA:54,0
DA:55,0
DA:56,0
DA:57,0
DA:61,0
DA:67,1265
DA:71,1265
DA:73,1265
DA:77,1
DA:81,1
DA:82,1
DA:84,1
DA:88,1
DA:92,1
DA:95,1
DA:97,1
DA:101,1
DA:105,1
DA:111,1
DA:112,1
DA:114,1
DA:115,1
DA:119,1265
DA:123,1265
DA:127,1265
DA:128,1265
DA:134,1265
DA:135,1265
DA:139,7
DA:143,7
DA:147,7
DA:151,7
DA:152,7
DA:156,7
DA:160,7
DA:162,7
DA:166,1
DA:170,1
DA:172,1
DA:176,7
DA:180,7
DA:186,1265
DA:190,1265
DA:210,1
DA:212,1
DA:215,1
DA:219,1
DA:226,1
DA:228,1273
DA:233,1274
DA:237,1
DA:239,1
DA:241,1
DA:242,1
DA:244,1265
DA:247,1265
DA:249,1265
DA:252,1
DA:255,1
DA:259,1
DA:265,1264
DA:268,1264
DA:272,1264
DA:274,1265
DA:276,7
DA:279,7
DA:281,7
DA:284,1
DA:285,1
DA:288,1
DA:292,1
DA:299,6
DA:303,6
DA:305,7
DA:307,1
DA:309,1
DA:311,1
DA:312,1
DA:316,1274
DA:320,0
DA:322,0
DA:323,0
DA:326,1267
DA:328,1267
DA:329,1266
DA:332,7
DA:334,7
DA:336,7
DA:337,7
DA:341,1273
DA:343,1273
DA:345,0
DA:351,1
DA:354,1
DA:356,1
DA:368,1
DA:374,1
DA:375,1
DA:376,1
DA:390,1267
DA:395,1267
DA:397,0
DA:400,1267
DA:402,1266
DA:405,1265
DA:407,1265
DA:411,1265
DA:412,1265
DA:413,1265
DA:416,1265
DA:418,1
DA:420,1
DA:424,1
DA:425,1
DA:426,1
DA:429,1
DA:433,1266
DA:435,0
DA:439,1266
DA:441,1266
DA:455,7
DA:460,7
DA:462,0
DA:465,7
DA:467,7
DA:470,7
DA:472,7
DA:476,7
DA:477,7
DA:478,7
DA:481,7
DA:485,7
DA:487,0
DA:491,7
DA:493,7
end_of_record
TN:
SF:/home/atcsol/git/proyectofinal2.0/uah_photsat_freertos/service_libraries/edroomsl/edroombp/include/public/edroombp.h
FN:192,_ZN12Pr_SemaphoreD2Ev
FNDA:0,_ZN12Pr_SemaphoreD2Ev
FN:261,_ZN15Pr_SemaphoreBinD2Ev
FNDA:0,_ZN15Pr_SemaphoreBinD2Ev
FN:337,_ZN15Pr_SemaphoreRecD2Ev
FNDA:0,_ZN15Pr_SemaphoreRecD2Ev
FN:533,_ZN7Pr_TaskD2Ev
FNDA:0,_ZN7Pr_TaskD2Ev
DA:192,0
DA:193,0
DA:194,0
DA:195,0
DA:261,0
DA:262,0
DA:264,0
DA:337,0
DA:533,0
DA:534,0
DA:536,0
end_of_record
SF:/home/atcsol/git/proyectofinal2.0/uah_photsat_freertos/service_libraries/edroomsl/edroomsl/include/edroomsl/edroomsl.h
FN:115,_ZN11CEDROOMPoolD0Ev
FNDA:0,_ZN11CEDROOMPoolD0Ev
FN:115,_ZN11CEDROOMPoolD2Ev
FNDA:0,_ZN11CEDROOMPoolD2Ev
FN:236,_ZN17CEDROOMMemoryPoolD0Ev
FNDA:0,_ZN17CEDROOMMemoryPoolD0Ev
FN:236,_ZN17CEDROOMMemoryPoolD2Ev
FNDA:0,_ZN17CEDROOMMemoryPoolD2Ev
FN:314,_ZN26CEDROOMProtectedMemoryPoolD0Ev
FNDA:0,_ZN26CEDROOMProtectedMemoryPoolD0Ev
FN:314,_ZN26CEDROOMProtectedMemoryPoolD2Ev
FNDA:0,_ZN26CEDROOMProtectedMemoryPoolD2Ev
DA:115,0
DA:115,0
DA:236,0
DA:236,0
DA:314,0
DA:314,0
end_of_record
SF:/home/atcsol/git/proyectofinal2.0/uah_photsat_freertos/asw/components/cchk_fdirmng/src/CCHK_FDIRMngS.cpp
FN:13,_ZN12CCHK_FDIRMngC2Ejj15TEDROOMPriorityjPNS_13CEDROOMMemoryE
FNDA:1,_ZN12CCHK_FDIRMngC2Ejj15TEDROOMPriorityjPNS_13CEDROOMMemoryE
FN:49,_ZN12CCHK_FDIRMng12EDROOMConfigEv
FNDA:0,_ZN12CCHK_FDIRMng12EDROOMConfigEv
FN:60,_ZN12CCHK_FDIRMng11EDROOMStartEv
FNDA:1,_ZN12CCHK_FDIRMng11EDROOMStartEv
FN:85,_ZN12CCHK_FDIRMng15EDROOMBehaviourEv
FNDA:1,_ZN12CCHK_FDIRMng15EDROOMBehaviourEv
FN:114,_ZN12CCHK_FDIRMng13CEDROOMMemory9SetMemoryEjP14CEDROOMMessagePbjPN12CEDROOMQueue10CQueueNodeES3_
FNDA:1,_ZN12CCHK_FDIRMng13CEDROOMMemory9SetMemoryEjP14CEDROOMMessagePbjPN12CEDROOMQueue10CQueueNodeES3_
DA:13,1
DA:17,1
DA:32,1
DA:38,1
DA:49,0
DA:53,0
DA:60,1
DA:66,1
DA:70,1
DA:72,1
DA:85,1
DA:88,1
DA:89,1
DA:91,0
DA:114,1
DA:122,1
DA:123,1
DA:125,1
DA:128,1
end_of_record
SF:/home/atcsol/git/proyectofinal2.0/uah_photsat_freertos/asw/components/cchk_fdirmng/include/public/cchk_fdirmng_iface_v1.h
end_of_record
TN:
SF:/home/atcsol/git/proyectofinal2.0/uah_photsat_freertos/service_libraries/edroomsl/edroombp/include/public/edroombp.h
FN:192,_ZN12Pr_SemaphoreD2Ev
FNDA:0,_ZN12Pr_SemaphoreD2Ev
FN:337,_ZN15Pr_SemaphoreRecD2Ev
FNDA:0,_ZN15Pr_SemaphoreRecD2Ev
DA:192,0
DA:193,0
DA:194,0
DA:195,0
DA:337,0
end_of_record
SF:/home/atcsol/git/proyectofinal2.0/uah_photsat_freertos/service_libraries/edroomsl/edroomsl/include/edroomsl/edroomsl.h
FN:115,_ZN11CEDROOMPoolD0Ev
FNDA:0,_ZN11CEDROOMPoolD0Ev
FN:115,_ZN11CEDROOMPoolD2Ev
FNDA:0,_ZN11CEDROOMPoolD2Ev
FN:236,_ZN17CEDROOMMemoryPoolD0Ev
FNDA:0,_ZN17CEDROOMMemoryPoolD0Ev
FN:236,_ZN17CEDROOMMemoryPoolD2Ev
FNDA:0,_ZN17CEDROOMMemoryPoolD2Ev
FN:314,_ZN26CEDROOMProtectedMemoryPoolD0Ev
FNDA:0,_ZN26CEDROOMProtectedMemoryPoolD0Ev
FN:314,_ZN26CEDROOMProtectedMemoryPoolD2Ev
FNDA:0,_ZN26CEDROOMProtectedMemoryPoolD2Ev
DA:115,0
DA:115,0
DA:236,0
DA:236,0
DA:314,0
DA:314,0
end_of_record
SF:/home/atcsol/git/proyectofinal2.0/uah_photsat_freertos/asw/components/cchk_fdirmng/include/public/cchk_fdirmng_iface_v1.h
FN:254,_ZN12CCHK_FDIRMng16EDROOM_CTX_Top_016EDROOMNewMessageEv
FNDA:130,_ZN12CCHK_FDIRMng16EDROOM_CTX_Top_016EDROOMNewMessageEv
DA:254,130
DA:255,130
end_of_record
SF:/home/atcsol/git/proyectofinal2.0/uah_photsat_freertos/asw/components/cchk_fdirmng/src/CCHK_FDIRMngB.cpp
FN:13,_ZN12CCHK_FDIRMng16EDROOM_CTX_Top_0C2ERS_R7Pr_TimeRNS0_21CEDROOMPOOLCDEvActionE
FNDA:1,_ZN12CCHK_FDIRMng16EDROOM_CTX_Top_0C2ERS_R7Pr_TimeRNS0_21CEDROOMPOOLCDEvActionE
FN:27,_ZN12CCHK_FDIRMng16EDROOM_CTX_Top_0C2ERS0_
FNDA:0,_ZN12CCHK_FDIRMng16EDROOM_CTX_Top_0C2ERS0_
FN:42,_ZN12CCHK_FDIRMng16EDROOM_CTX_Top_024EDROOMSearchContextTransER14TEDROOMTransId
FNDA:0,_ZN12CCHK_FDIRMng16EDROOM_CTX_Top_024EDROOMSearchContextTransER14TEDROOMTransId
FN:66,_ZN12CCHK_FDIRMng16EDROOM_CTX_Top_010FDoHK_FDIREv
FNDA:129,_ZN12CCHK_FDIRMng16EDROOM_CTX_Top_010FDoHK_FDIREv
FN:85,_ZN12CCHK_FDIRMng16EDROOM_CTX_Top_015FExecHK_FDIR_TCEv
FNDA:0,_ZN12CCHK_FDIRMng16EDROOM_CTX_Top_015FExecHK_FDIR_TCEv
FN:97,_ZN12CCHK_FDIRMng16EDROOM_CTX_Top_012FFwdEvActionEv
FNDA:0,_ZN12CCHK_FDIRMng16EDROOM_CTX_Top_012FFwdEvActionEv
FN:113,_ZN12CCHK_FDIRMng16EDROOM_CTX_Top_012FInitHK_FDIREv
FNDA:1,_ZN12CCHK_FDIRMng16EDROOM_CTX_Top_012FInitHK_FDIREv
FN:130,_ZN12CCHK_FDIRMng16EDROOM_CTX_Top_016GPendingEvActionEv
FNDA:129,_ZN12CCHK_FDIRMng16EDROOM_CTX_Top_016GPendingEvActionEv
FN:146,_ZN12CCHK_FDIRMng16EDROOM_CTX_Top_021CEDROOMPOOLCDEvActionC2EjP10CDEvActionPb
FNDA:1,_ZN12CCHK_FDIRMng16EDROOM_CTX_Top_021CEDROOMPOOLCDEvActionC2EjP10CDEvActionPb
FN:153,_ZN12CCHK_FDIRMng16EDROOM_CTX_Top_021CEDROOMPOOLCDEvAction9AllocDataEv
FNDA:0,_ZN12CCHK_FDIRMng16EDROOM_CTX_Top_021CEDROOMPOOLCDEvAction9AllocDataEv
FN:170,_ZN12CCHK_FDIRMng16EDROOM_SUB_Top_0C2ERS_PNS_13CEDROOMMemoryE
FNDA:1,_ZN12CCHK_FDIRMng16EDROOM_SUB_Top_0C2ERS_PNS_13CEDROOMMemoryE
FN:184,_ZN12CCHK_FDIRMng16EDROOM_SUB_Top_015EDROOMBehaviourEv
FNDA:1,_ZN12CCHK_FDIRMng16EDROOM_SUB_Top_015EDROOMBehaviourEv
FN:275,_ZN12CCHK_FDIRMng16EDROOM_SUB_Top_010EDROOMInitEv
FNDA:1,_ZN12CCHK_FDIRMng16EDROOM_SUB_Top_010EDROOMInitEv
FN:292,_ZN12CCHK_FDIRMng16EDROOM_SUB_Top_014EDROOMIArrivalEv
FNDA:1,_ZN12CCHK_FDIRMng16EDROOM_SUB_Top_014EDROOMIArrivalEv
FN:314,_ZN12CCHK_FDIRMng16EDROOM_SUB_Top_018EDROOMReadyArrivalEv
FNDA:130,_ZN12CCHK_FDIRMng16EDROOM_SUB_Top_018EDROOMReadyArrivalEv
DA:13,1
DA:15,1
DA:18,1
DA:19,1
DA:20,1
DA:21,1
DA:23,1
DA:25,1
DA:27,0
DA:29,0
DA:30,0
DA:31,0
DA:32,0
DA:33,0
DA:34,0
DA:35,0
DA:38,0
DA:42,0
DA:46,0
DA:48,0
DA:51,0
DA:53,0
DA:54,0
DA:55,0
DA:56,0
DA:60,0
DA:66,129
DA:70,129
DA:72,129
DA:73,129
DA:75,129
DA:76,129
DA:77,129
DA:78,129
DA:80,129
DA:81,129
DA:85,0
DA:89,0
DA:91,0
DA:93,0
DA:97,0
DA:101,0
DA:106,0
DA:108,0
DA:109,0
DA:113,1
DA:117,1
DA:119,1
DA:120,1
DA:121,1
DA:125,1
DA:126,1
DA:130,129
DA:135,129
DA:146,1
DA:147,1
DA:149,1
DA:151,1
DA:153,0
DA:155,0
DA:170,1
DA:171,1
DA:173,1
DA:174,1
DA:176,1
DA:177,1
DA:180,1
DA:184,1
DA:191,1
DA:193,129
DA:198,130
DA:202,1
DA:204,1
DA:206,1
DA:207,1
DA:209,0
DA:211,0
DA:213,0
DA:214,0
DA:216,129
DA:219,129
DA:221,129
DA:224,0
DA:227,0
DA:231,0
DA:238,129
DA:242,129
DA:244,129
DA:248,130
DA:252,0
DA:254,0
DA:255,0
DA:258,130
DA:260,130
DA:261,129
DA:265,129
DA:267,129
DA:269,0
DA:275,1
DA:278,1
DA:280,1
DA:292,1
DA:298,1
DA:299,1
DA:300,1
DA:314,130
DA:319,130
DA:321,0
DA:324,130
DA:326,129
DA:329,0
DA:331,0
DA:335,0
DA:336,0
DA:337,0
DA:340,0
DA:342,129
DA:344,129
DA:348,129
DA:349,129
DA:350,129
DA:353,129
DA:357,129
DA:359,0
DA:363,129
DA:365,129
end_of_record
TN:
SF:/home/atcsol/git/proyectofinal2.0/uah_photsat_freertos/asw/components/uahphotsat/include/public/uahphotsat_iface_v1.h
FN:220,_ZN10UAHPhotSat16EDROOM_CTX_Top_016EDROOMNewMessageEv
FNDA:130,_ZN10UAHPhotSat16EDROOM_CTX_Top_016EDROOMNewMessageEv
DA:220,130
DA:221,130
end_of_record
SF:/home/atcsol/git/proyectofinal2.0/uah_photsat_freertos/asw/components/uahphotsat/src/UAHPhotSatB.cpp
FN:13,_ZN10UAHPhotSat16EDROOM_CTX_Top_0C2ERS_R7Pr_Time
FNDA:1,_ZN10UAHPhotSat16EDROOM_CTX_Top_0C2ERS_R7Pr_Time
FN:24,_ZN10UAHPhotSat16EDROOM_CTX_Top_0C2ERS0_
FNDA:0,_ZN10UAHPhotSat16EDROOM_CTX_Top_0C2ERS0_
FN:37,_ZN10UAHPhotSat16EDROOM_CTX_Top_024EDROOMSearchContextTransER14TEDROOMTransId
FNDA:0,_ZN10UAHPhotSat16EDROOM_CTX_Top_024EDROOMSearchContextTransER14TEDROOMTransId
FN:61,_ZN10UAHPhotSat16EDROOM_CTX_Top_08FEmuInitEv
FNDA:1,_ZN10UAHPhotSat16EDROOM_CTX_Top_08FEmuInitEv
FN:81,_ZN10UAHPhotSat16EDROOM_CTX_Top_014FEmuRxTimeCodeEv
FNDA:130,_ZN10UAHPhotSat16EDROOM_CTX_Top_014FEmuRxTimeCodeEv
FN:93,_ZN10UAHPhotSat16EDROOM_CTX_Top_010FProgTimerEv
FNDA:130,_ZN10UAHPhotSat16EDROOM_CTX_Top_010FProgTimerEv
FN:123,_ZN10UAHPhotSat16EDROOM_SUB_Top_0C2ERS_
FNDA:1,_ZN10UAHPhotSat16EDROOM_SUB_Top_0C2ERS_
FN:132,_ZN10UAHPhotSat16EDROOM_SUB_Top_015EDROOMBehaviourEv
FNDA:1,_ZN10UAHPhotSat16EDROOM_SUB_Top_015EDROOMBehaviourEv
FN:195,_ZN10UAHPhotSat16EDROOM_SUB_Top_010EDROOMInitEv
FNDA:1,_ZN10UAHPhotSat16EDROOM_SUB_Top_010EDROOMInitEv
FN:212,_ZN10UAHPhotSat16EDROOM_SUB_Top_014EDROOMIArrivalEv
FNDA:1,_ZN10UAHPhotSat16EDROOM_SUB_Top_014EDROOMIArrivalEv
FN:234,_ZN10UAHPhotSat16EDROOM_SUB_Top_018EDROOMReadyArrivalEv
FNDA:130,_ZN10UAHPhotSat16EDROOM_SUB_Top_018EDROOMReadyArrivalEv
DA:13,1
DA:14,1
DA:17,1
DA:18,1
DA:19,1
DA:20,1
DA:22,1
DA:24,0
DA:26,0
DA:27,0
DA:28,0
DA:29,0
DA:30,0
DA:33,0
DA:37,0
DA:41,0
DA:43,0
DA:46,0
DA:48,0
DA:49,0
DA:50,0
DA:51,0
DA:55,0
DA:61,1
DA:65,1
DA:67,1
DA:69,1
DA:71,1
DA:72,1
DA:74,1
DA:76,1
DA:77,1
DA:81,130
DA:86,130
DA:89,129
DA:93,130
DA:97,130
DA:100,130
DA:102,130
DA:104,130
DA:105,130
DA:123,1
DA:125,1
DA:128,1
DA:132,1
DA:139,1
DA:141,130
DA:146,131
DA:150,1
DA:152,1
DA:154,1
DA:155,1
DA:157,130
DA:159,130
DA:161,129
DA:162,129
DA:166,130
DA:170,0
DA:172,0
DA:173,0
DA:176,130
DA:178,130
DA:180,130
DA:181,130
DA:185,130
DA:187,130
DA:189,0
DA:195,1
DA:198,1
DA:200,1
DA:212,1
DA:218,1
DA:219,1
DA:220,1
DA:234,130
DA:239,130
DA:241,0
DA:244,130
DA:246,130
DA:249,130
DA:251,130
DA:255,130
DA:256,130
DA:257,130
DA:260,130
DA:264,130
DA:266,0
DA:270,130
DA:272,130
end_of_record
TN:
SF:/home/atcsol/git/proyectofinal2.0/uah_photsat_freertos/asw/components/uahphotsat/include/public/uahphotsat_iface_v1.h
end_of_record
SF:/home/atcsol/git/proyectofinal2.0/uah_photsat_freertos/asw/components/uahphotsat/src/UAHPhotSatS.cpp
FN:13,_ZN10UAHPhotSatC2Ejj15TEDROOMPriorityjPNS_13CEDROOMMemoryE
FNDA:1,_ZN10UAHPhotSatC2Ejj15TEDROOMPriorityjPNS_13CEDROOMMemoryE
FN:49,_ZN10UAHPhotSat12EDROOMConfigEv
FNDA:0,_ZN10UAHPhotSat12EDROOMConfigEv
FN:60,_ZN10UAHPhotSat11EDROOMStartEv
FNDA:1,_ZN10UAHPhotSat11EDROOMStartEv
FN:85,_ZN10UAHPhotSat15EDROOMBehaviourEv
FNDA:1,_ZN10UAHPhotSat15EDROOMBehaviourEv
FN:114,_ZN10UAHPhotSat13CEDROOMMemory9SetMemoryEjP14CEDROOMMessagePbjPN12CEDROOMQueue10CQueueNodeES3_
FNDA:1,_ZN10UAHPhotSat13CEDROOMMemory9SetMemoryEjP14CEDROOMMessagePbjPN12CEDROOMQueue10CQueueNodeES3_
DA:13,1
DA:17,1
DA:32,1
DA:38,1
DA:49,0
DA:53,0
DA:60,1
DA:66,1
DA:70,1
DA:72,1
DA:85,1
DA:88,1
DA:89,1
DA:91,0
DA:114,1
DA:122,1
DA:123,1
DA:125,1
DA:128,1
end_of_record
SF:/home/atcsol/git/proyectofinal2.0/uah_photsat_freertos/service_libraries/edroomsl/edroomsl/include/edroomsl/edroomsl.h
end_of_record
SF:/home/atcsol/git/proyectofinal2.0/uah_photsat_freertos/service_libraries/edroomsl/edroombp/include/public/edroombp.h
FN:192,_ZN12Pr_SemaphoreD2Ev
FNDA:0,_ZN12Pr_SemaphoreD2Ev
FN:261,_ZN15Pr_SemaphoreBinD2Ev
FNDA:0,_ZN15Pr_SemaphoreBinD2Ev
FN:337,_ZN15Pr_SemaphoreRecD2Ev
FNDA:0,_ZN15Pr_SemaphoreRecD2Ev
FN:533,_ZN7Pr_TaskD2Ev
FNDA:0,_ZN7Pr_TaskD2Ev
DA:192,0
DA:193,0
DA:194,0
DA:195,0
DA:261,0
DA:262,0
DA:264,0
DA:337,0
DA:533,0
DA:534,0
DA:536,0
end_of_record
TN:
SF:/home/atcsol/git/proyectofinal2.0/uah_photsat_freertos/service_libraries/edroomsl/edroomsl/include/edroomsl/edroomsl.h
FN:115,_ZN11CEDROOMPoolD0Ev
FNDA:0,_ZN11CEDROOMPoolD0Ev
FN:115,_ZN11CEDROOMPoolD2Ev
FNDA:0,_ZN11CEDROOMPoolD2Ev
FN:236,_ZN17CEDROOMMemoryPoolD0Ev
FNDA:0,_ZN17CEDROOMMemoryPoolD0Ev
FN:236,_ZN17CEDROOMMemoryPoolD2Ev
FNDA:0,_ZN17CEDROOMMemoryPoolD2Ev
FN:314,_ZN26CEDROOMProtectedMemoryPoolD0Ev
FNDA:0,_ZN26CEDROOMProtectedMemoryPoolD0Ev
FN:314,_ZN26CEDROOMProtectedMemoryPoolD2Ev
FNDA:0,_ZN26CEDROOMProtectedMemoryPoolD2Ev
DA:115,0
DA:115,0
DA:236,0
DA:236,0
DA:314,0
DA:314,0
end_of_record
SF:/home/atcsol/git/proyectofinal2.0/uah_photsat_freertos/asw/dataclasses/CDTCAcceptReport/include/public/cdtcacceptreport.h
FN:16,_ZN16CDTCAcceptReportC2Ev
FNDA:0,_ZN16CDTCAcceptReportC2Ev
FN:21,_ZN16CDTCAcceptReport10IsAcceptedEv
FNDA:2,_ZN16CDTCAcceptReport10IsAcceptedEv
DA:16,0
DA:17,0
DA:18,0
DA:21,2
DA:22,2
end_of_record
SF:/home/atcsol/git/proyectofinal2.0/uah_photsat_freertos/asw/dataclasses/CDEvAction/include/public/cdevaction.h
FN:18,_ZN10CDEvAction18GetActionTCHandlerEv
FNDA:0,_ZN10CDEvAction18GetActionTCHandlerEv
DA:18,0
DA:20,0
end_of_record
SF:/home/atcsol/git/proyectofinal2.0/uah_photsat_freertos/asw/components/cctcmanager/include/public/cctcmanager_iface_v1.h
FN:301,_ZN11CCTCManager16EDROOM_CTX_Top_016EDROOMNewMessageEv
FNDA:2,_ZN11CCTCManager16EDROOM_CTX_Top_016EDROOMNewMessageEv
DA:301,2
DA:302,2
end_of_record
SF:/home/atcsol/git/proyectofinal2.0/uah_photsat_freertos/service_libraries/edroomsl/edroombp/include/public/edroombp.h
FN:192,_ZN12Pr_SemaphoreD2Ev
FNDA:0,_ZN12Pr_SemaphoreD2Ev
FN:337,_ZN15Pr_SemaphoreRecD2Ev
FNDA:0,_ZN15Pr_SemaphoreRecD2Ev
DA:192,0
DA:193,0
DA:194,0
DA:195,0
DA:337,0
end_of_record
SF:/home/atcsol/git/proyectofinal2.0/uah_photsat_freertos/asw/components/cctcmanager/src/CCTCManagerB.cpp
FN:13,_ZN11CCTCManager16EDROOM_CTX_Top_0C2ERS_R16CDTCAcceptReportR11CDTCHandlerR12CDTCExecCtrlRNS0_22CEDROOMPOOLCDTCHandlerE
FNDA:1,_ZN11CCTCManager16EDROOM_CTX_Top_0C2ERS_R16CDTCAcceptReportR11CDTCHandlerR12CDTCExecCtrlRNS0_22CEDROOMPOOLCDTCHandlerE
FN:33,_ZN11CCTCManager16EDROOM_CTX_Top_0C2ERS0_
FNDA:0,_ZN11CCTCManager16EDROOM_CTX_Top_0C2ERS0_
FN:52,_ZN11CCTCManager16EDROOM_CTX_Top_024EDROOMSearchContextTransER14TEDROOMTransId
FNDA:0,_ZN11CCTCManager16EDROOM_CTX_Top_024EDROOMSearchContextTransER14TEDROOMTransId
FN:76,_ZN11CCTCManager16EDROOM_CTX_Top_07FExecTCEv
FNDA:1,_ZN11CCTCManager16EDROOM_CTX_Top_07FExecTCEv
FN:86,_ZN11CCTCManager16EDROOM_CTX_Top_013FFwdHK_FDIRTCEv
FNDA:0,_ZN11CCTCManager16EDROOM_CTX_Top_013FFwdHK_FDIRTCEv
FN:101,_ZN11CCTCManager16EDROOM_CTX_Top_012FFwdObsMngTCEv
FNDA:1,_ZN11CCTCManager16EDROOM_CTX_Top_012FFwdObsMngTCEv
FN:116,_ZN11CCTCManager16EDROOM_CTX_Top_015FFwdToBKGTCExecEv
FNDA:0,_ZN11CCTCManager16EDROOM_CTX_Top_015FFwdToBKGTCExecEv
FN:131,_ZN11CCTCManager16EDROOM_CTX_Top_012FGetEvActionEv
FNDA:0,_ZN11CCTCManager16EDROOM_CTX_Top_012FGetEvActionEv
FN:149,_ZN11CCTCManager16EDROOM_CTX_Top_06FGetTCEv
FNDA:2,_ZN11CCTCManager16EDROOM_CTX_Top_06FGetTCEv
FN:165,_ZN11CCTCManager16EDROOM_CTX_Top_05FInitEv
FNDA:1,_ZN11CCTCManager16EDROOM_CTX_Top_05FInitEv
FN:181,_ZN11CCTCManager16EDROOM_CTX_Top_017FMngTCAcceptationEv
FNDA:2,_ZN11CCTCManager16EDROOM_CTX_Top_017FMngTCAcceptationEv
FN:193,_ZN11CCTCManager16EDROOM_CTX_Top_015FMngTCRejectionEv
FNDA:0,_ZN11CCTCManager16EDROOM_CTX_Top_015FMngTCRejectionEv
FN:206,_ZN11CCTCManager16EDROOM_CTX_Top_07FRebootEv
FNDA:1,_ZN11CCTCManager16EDROOM_CTX_Top_07FRebootEv
FN:216,_ZN11CCTCManager16EDROOM_CTX_Top_011FTCExecCtrlEv
FNDA:2,_ZN11CCTCManager16EDROOM_CTX_Top_011FTCExecCtrlEv
FN:226,_ZN11CCTCManager16EDROOM_CTX_Top_09GAcceptTCEv
FNDA:2,_ZN11CCTCManager16EDROOM_CTX_Top_09GAcceptTCEv
FN:236,_ZN11CCTCManager16EDROOM_CTX_Top_012GFwdObsMngTCEv
FNDA:1,_ZN11CCTCManager16EDROOM_CTX_Top_012GFwdObsMngTCEv
FN:246,_ZN11CCTCManager16EDROOM_CTX_Top_015GFwdToBKGTCExecEv
FNDA:1,_ZN11CCTCManager16EDROOM_CTX_Top_015GFwdToBKGTCExecEv
FN:256,_ZN11CCTCManager16EDROOM_CTX_Top_013GFwdToHK_FDIREv
FNDA:1,_ZN11CCTCManager16EDROOM_CTX_Top_013GFwdToHK_FDIREv
FN:266,_ZN11CCTCManager16EDROOM_CTX_Top_09GToRebootEv
FNDA:2,_ZN11CCTCManager16EDROOM_CTX_Top_09GToRebootEv
FN:280,_ZN11CCTCManager16EDROOM_CTX_Top_022CEDROOMPOOLCDTCHandlerC2EjP11CDTCHandlerPb
FNDA:1,_ZN11CCTCManager16EDROOM_CTX_Top_022CEDROOMPOOLCDTCHandlerC2EjP11CDTCHandlerPb
FN:287,_ZN11CCTCManager16EDROOM_CTX_Top_022CEDROOMPOOLCDTCHandler9AllocDataEv
FNDA:1,_ZN11CCTCManager16EDROOM_CTX_Top_022CEDROOMPOOLCDTCHandler9AllocDataEv
FN:304,_ZN11CCTCManager16EDROOM_SUB_Top_0C2ERS_PNS_13CEDROOMMemoryE
FNDA:1,_ZN11CCTCManager16EDROOM_SUB_Top_0C2ERS_PNS_13CEDROOMMemoryE
FN:320,_ZN11CCTCManager16EDROOM_SUB_Top_015EDROOMBehaviourEv
FNDA:1,_ZN11CCTCManager16EDROOM_SUB_Top_015EDROOMBehaviourEv
FN:498,_ZN11CCTCManager16EDROOM_SUB_Top_010EDROOMInitEv
FNDA:1,_ZN11CCTCManager16EDROOM_SUB_Top_010EDROOMInitEv
FN:515,_ZN11CCTCManager16EDROOM_SUB_Top_014EDROOMIArrivalEv
FNDA:1,_ZN11CCTCManager16EDROOM_SUB_Top_014EDROOMIArrivalEv
FN:537,_ZN11CCTCManager16EDROOM_SUB_Top_020EDROOMValidTCArrivalEv
FNDA:2,_ZN11CCTCManager16EDROOM_SUB_Top_020EDROOMValidTCArrivalEv
FN:559,_ZN11CCTCManager16EDROOM_SUB_Top_018EDROOMReadyArrivalEv
FNDA:2,_ZN11CCTCManager16EDROOM_SUB_Top_018EDROOMReadyArrivalEv
FN:624,_ZN11CCTCManager16EDROOM_SUB_Top_019EDROOMRebootArrivalEv
FNDA:0,_ZN11CCTCManager16EDROOM_SUB_Top_019EDROOMRebootArrivalEv
DA:13,1
DA:17,1
DA:20,1
DA:21,1
DA:22,1
DA:23,1
DA:24,1
DA:29,1
DA:31,1
DA:33,0
DA:35,0
DA:36,0
DA:37,0
DA:38,0
DA:39,0
DA:40,0
DA:41,0
DA:42,0
DA:43,0
DA:44,0
DA:45,0
DA:48,0
DA:52,0
DA:56,0
DA:58,0
DA:61,0
DA:63,0
DA:64,0
DA:65,0
DA:66,0
DA:70,0
DA:76,1
DA:80,1
DA:82,1
DA:86,0
DA:90,0
DA:94,0
DA:96,0
DA:97,0
DA:101,1
DA:105,1
DA:109,1
DA:111,1
DA:112,1
DA:116,0
DA:120,0
DA:124,0
DA:126,0
DA:127,0
DA:131,0
DA:135,0
DA:140,0
DA:145,0
DA:149,2
DA:153,2
DA:156,2
DA:159,2
DA:161,2
DA:165,1
DA:169,1
DA:171,1
DA:173,1
DA:175,1
DA:177,1
DA:181,2
DA:186,2
DA:189,2
DA:193,0
DA:199,0
DA:202,0
DA:206,1
DA:210,1
DA:212,0
DA:216,2
DA:220,2
DA:222,2
DA:226,2
DA:230,2
DA:236,1
DA:240,1
DA:246,1
DA:250,1
DA:256,1
DA:260,1
DA:266,2
DA:270,2
DA:280,1
DA:281,1
DA:283,1
DA:285,1
DA:287,1
DA:289,1
DA:304,1
DA:305,1
DA:307,1
DA:308,1
DA:309,1
DA:310,1
DA:312,1
DA:313,1
DA:316,1
DA:320,1
DA:327,1
DA:329,4
DA:334,5
DA:338,1
DA:340,1
DA:342,1
DA:343,1
DA:345,2
DA:348,2
DA:350,2
DA:353,2
DA:356,2
DA:360,2
DA:366,0
DA:369,0
DA:373,0
DA:375,2
DA:377,0
DA:379,0
DA:381,0
DA:382,0
DA:384,2
DA:387,2
DA:389,2
DA:392,1
DA:395,1
DA:399,1
DA:402,1
DA:405,0
DA:408,0
DA:412,0
DA:415,1
DA:418,0
DA:421,0
DA:425,0
DA:428,1
DA:431,1
DA:434,1
DA:438,1
DA:444,0
DA:447,0
DA:451,0
DA:453,2
DA:457,5
DA:461,0
DA:463,0
DA:464,0
DA:467,2
DA:469,2
DA:470,2
DA:473,1
DA:475,1
DA:477,0
DA:478,0
DA:481,2
DA:483,2
DA:484,2
DA:488,4
DA:490,4
DA:492,0
DA:498,1
DA:501,1
DA:503,1
DA:515,1
DA:521,1
DA:522,1
DA:523,1
DA:537,2
DA:543,2
DA:544,2
DA:545,2
DA:559,2
DA:564,2
DA:566,0
DA:569,2
DA:571,2
DA:574,2
DA:576,2
DA:580,2
DA:581,2
DA:582,2
DA:585,2
DA:587,0
DA:589,0
DA:593,0
DA:594,0
DA:595,0
DA:598,0
DA:602,2
DA:604,0
DA:608,2
DA:610,2
DA:624,0
DA:629,0
DA:631,0
DA:634,0
DA:636,0
DA:638,0
DA:642,0
DA:644,0
end_of_record
SF:/home/atcsol/git/proyectofinal2.0/uah_photsat_freertos/asw/dataclasses/CDTCExecCtrl/include/public/cdtcexecctrl.h
FN:25,_ZN12CDTCExecCtrl10IsRebootTCEv
FNDA:2,_ZN12CDTCExecCtrl10IsRebootTCEv
FN:41,_ZN12CDTCExecCtrl11IsHK_FDIRTCEv
FNDA:1,_ZN12CDTCExecCtrl11IsHK_FDIRTCEv
FN:52,_ZN12CDTCExecCtrl10IsObsMngTCEv
FNDA:1,_ZN12CDTCExecCtrl10IsObsMngTCEv
FN:59,_ZN12CDTCExecCtrl7IsBKGTCEv
FNDA:1,_ZN12CDTCExecCtrl7IsBKGTCEv
DA:25,2
DA:41,1
DA:52,1
DA:59,1
end_of_record
TN:
SF:/home/atcsol/git/proyectofinal2.0/uah_photsat_freertos/asw/components/cctcmanager/src/CCTCManagerS.cpp
FN:25,_ZN11CCTCManager33EDROOMIRQ18HandlerTopHalfFunctionEv
FNDA:0,_ZN11CCTCManager33EDROOMIRQ18HandlerTopHalfFunctionEv
FN:47,_ZN11CCTCManager18EDROOMIRQ18HandlerEv
FNDA:0,_ZN11CCTCManager18EDROOMIRQ18HandlerEv
FN:57,_ZN11CCTCManager22EDROOMIRQ18IdleHandlerEv
FNDA:0,_ZN11CCTCManager22EDROOMIRQ18IdleHandlerEv
FN:65,_ZN11CCTCManager25EDROOMIRQ18BottomHalfTaskEv
FNDA:1,_ZN11CCTCManager25EDROOMIRQ18BottomHalfTaskEv
FN:126,_ZN11CCTCManagerC2Ejj15TEDROOMPriorityjPNS_13CEDROOMMemoryE
FNDA:1,_ZN11CCTCManagerC2Ejj15TEDROOMPriorityjPNS_13CEDROOMMemoryE
FN:158,_ZN11CCTCManager12EDROOMConfigEv
FNDA:0,_ZN11CCTCManager12EDROOMConfigEv
FN:169,_ZN11CCTCManager11EDROOMStartEv
FNDA:1,_ZN11CCTCManager11EDROOMStartEv
FN:190,_ZN11CCTCManager15EDROOMBehaviourEv
FNDA:1,_ZN11CCTCManager15EDROOMBehaviourEv
FN:223,_ZN11CCTCManager13CEDROOMMemory9SetMemoryEjP14CEDROOMMessagePbjPN12CEDROOMQueue10CQueueNodeES3_
FNDA:1,_ZN11CCTCManager13CEDROOMMemory9SetMemoryEjP14CEDROOMMessagePbjPN12CEDROOMQueue10CQueueNodeES3_
DA:25,0
DA:27,0
DA:38,0
DA:39,0
DA:41,0
DA:47,0
DA:49,0
DA:51,0
DA:57,0
DA:59,0
DA:65,1
DA:67,1
DA:69,2
DA:72,3
DA:74,2
DA:76,2
DA:80,2
DA:84,2
DA:88,2
DA:90,2
DA:93,2
DA:95,2
DA:97,2
DA:100,2
DA:102,0
DA:104,2
DA:106,0
DA:126,1
DA:130,1
DA:141,1
DA:147,1
DA:158,0
DA:162,0
DA:169,1
DA:175,1
DA:177,1
DA:190,1
DA:193,1
DA:194,1
DA:199,0
DA:200,0
DA:223,1
DA:231,1
DA:232,1
DA:235,1
end_of_record
SF:/home/atcsol/git/proyectofinal2.0/uah_photsat_freertos/service_libraries/edroomsl/edroombp/include/public/edroombp.h
FN:192,_ZN12Pr_SemaphoreD2Ev
FNDA:0,_ZN12Pr_SemaphoreD2Ev
FN:261,_ZN15Pr_SemaphoreBinD2Ev
FNDA:0,_ZN15Pr_SemaphoreBinD2Ev
FN:337,_ZN15Pr_SemaphoreRecD2Ev
FNDA:0,_ZN15Pr_SemaphoreRecD2Ev
FN:533,_ZN7Pr_TaskD2Ev
FNDA:0,_ZN7Pr_TaskD2Ev
DA:192,0
DA:193,0
DA:194,0
DA:195,0
DA:261,0
DA:262,0
DA:264,0
DA:337,0
DA:533,0
DA:534,0
DA:536,0
end_of_record
SF:/home/atcsol/git/proyectofinal2.0/uah_photsat_freertos/asw/components/cctcmanager/include/public/cctcmanager_iface_v1.h
FN:141,_ZN11CCTCManager33CEDROOMPOOLIRQ18CDTCMemDescriptorC2Ev
FNDA:1,_ZN11CCTCManager33CEDROOMPOOLIRQ18CDTCMemDescriptorC2Ev
FN:143,_ZN11CCTCManager33CEDROOMPOOLIRQ18CDTCMemDescriptor9AllocDataEv
FNDA:2,_ZN11CCTCManager33CEDROOMPOOLIRQ18CDTCMemDescriptor9AllocDataEv
DA:141,1
DA:143,2
end_of_record
SF:/home/atcsol/git/proyectofinal2.0/uah_photsat_freertos/service_libraries/edroomsl/edroomsl/include/edroomsl/edroomsl.h
FN:115,_ZN11CEDROOMPoolD0Ev
FNDA:0,_ZN11CEDROOMPoolD0Ev
FN:115,_ZN11CEDROOMPoolD2Ev
FNDA:0,_ZN11CEDROOMPoolD2Ev
FN:236,_ZN17CEDROOMMemoryPoolD0Ev
FNDA:0,_ZN17CEDROOMMemoryPoolD0Ev
FN:236,_ZN17CEDROOMMemoryPoolD2Ev
FNDA:0,_ZN17CEDROOMMemoryPoolD2Ev
FN:314,_ZN26CEDROOMProtectedMemoryPoolD0Ev
FNDA:0,_ZN26CEDROOMProtectedMemoryPoolD0Ev
FN:314,_ZN26CEDROOMProtectedMemoryPoolD2Ev
FNDA:0,_ZN26CEDROOMProtectedMemoryPoolD2Ev
DA:115,0
DA:115,0
DA:236,0
DA:236,0
DA:314,0
DA:314,0
end_of_record
TN:
SF:/home/atcsol/git/proyectofinal2.0/uah_photsat_freertos/asw/components/cchk_fdirmng/include/public/cchk_fdirmng_iface_v1.h
end_of_record
SF:/home/atcsol/git/proyectofinal2.0/uah_photsat_freertos/asw/components/ccbkgtcexec/include/public/ccbkgtcexec_iface_v1.h
end_of_record
SF:/home/atcsol/git/proyectofinal2.0/uah_photsat_freertos/service_libraries/edroomsl/edroombp/include/public/edroombp.h
FN:122,_ZN9Pr_KernelD2Ev
FNDA:1,_ZN9Pr_KernelD2Ev
FN:192,_ZN12Pr_SemaphoreD2Ev
FNDA:0,_ZN12Pr_SemaphoreD2Ev
FN:261,_ZN15Pr_SemaphoreBinD2Ev
FNDA:0,_ZN15Pr_SemaphoreBinD2Ev
FN:533,_ZN7Pr_TaskD2Ev
FNDA:0,_ZN7Pr_TaskD2Ev
DA:122,1
DA:192,0
DA:193,0
DA:194,0
DA:195,0
DA:261,0
DA:262,0
DA:264,0
DA:533,0
DA:534,0
DA:536,0
end_of_record
SF:/home/atcsol/git/proyectofinal2.0/uah_photsat_freertos/asw/components/uahphotsat/include/public/uahphotsat_iface_v1.h
end_of_record
SF:/home/atcsol/git/proyectofinal2.0/uah_photsat_freertos/asw/components/ccobsmng/include/public/ccobsmng_iface_v1.h
end_of_record
SF:/home/atcsol/git/proyectofinal2.0/uah_photsat_freertos/asw/edroom_glue/src/edroomdeployment.cpp
FN:11,_Z8MainWaitR10UAHPhotSatR11CCBKGTCExecR12CCHK_FDIRMngR11CCTCManagerR8CCObsMng
FNDA:1,_Z8MainWaitR10UAHPhotSatR11CCBKGTCExecR12CCHK_FDIRMngR11CCTCManagerR8CCObsMng
FN:36,_ZN19CEDROOMSystemMemory9SetMemoryEv
FNDA:1,_ZN19CEDROOMSystemMemory9SetMemoryEv
FN:53,_ZN20CEDROOMSystemCommSAP13SetComponentsEP10UAHPhotSatP11CCBKGTCExecP12CCHK_FDIRMngP11CCTCManagerP8CCObsMng
FNDA:1,_ZN20CEDROOMSystemCommSAP13SetComponentsEP10UAHPhotSatP11CCBKGTCExecP12CCHK_FDIRMngP11CCTCManagerP8CCObsMng
FN:73,_ZN20CEDROOMSystemCommSAP37C4TCManager_PObsMng__C5ObsMng_PObsMngEi
FNDA:1,_ZN20CEDROOMSystemCommSAP37C4TCManager_PObsMng__C5ObsMng_PObsMngEi
FN:88,_ZN20CEDROOMSystemCommSAP37C5ObsMng_PObsMng__C4TCManager_PObsMngEi
FNDA:0,_ZN20CEDROOMSystemCommSAP37C5ObsMng_PObsMng__C4TCManager_PObsMngEi
FN:101,_ZN20CEDROOMSystemCommSAP50C4TCManager_PBKGExecCtrl__C2BKGTCExec_PBKGExecCtrlEi
FNDA:0,_ZN20CEDROOMSystemCommSAP50C4TCManager_PBKGExecCtrl__C2BKGTCExec_PBKGExecCtrlEi
FN:116,_ZN20CEDROOMSystemCommSAP50C2BKGTCExec_PBKGExecCtrl__C4TCManager_PBKGExecCtrlEi
FNDA:0,_ZN20CEDROOMSystemCommSAP50C2BKGTCExec_PBKGExecCtrl__C4TCManager_PBKGExecCtrlEi
FN:129,_ZN20CEDROOMSystemCommSAP51C4TCManager_PHK_FDIRCtrl__C3HK_FDIRMng_PHK_FDIRCtrlEi
FNDA:0,_ZN20CEDROOMSystemCommSAP51C4TCManager_PHK_FDIRCtrl__C3HK_FDIRMng_PHK_FDIRCtrlEi
FN:144,_ZN20CEDROOMSystemCommSAP51C3HK_FDIRMng_PHK_FDIRCtrl__C4TCManager_PHK_FDIRCtrlEi
FNDA:0,_ZN20CEDROOMSystemCommSAP51C3HK_FDIRMng_PHK_FDIRCtrl__C4TCManager_PHK_FDIRCtrlEi
FN:164,_ZN20CEDROOMSystemCommSAP18RegisterInterfacesEv
FNDA:1,_ZN20CEDROOMSystemCommSAP18RegisterInterfacesEv
FN:193,_ZN20CEDROOMSystemCommSAP19SetLocalConnectionsEv
FNDA:1,_ZN20CEDROOMSystemCommSAP19SetLocalConnectionsEv
FN:213,_ZN20CEDROOMSystemCommSAP20SetRemoteConnectionsEv
FNDA:1,_ZN20CEDROOMSystemCommSAP20SetRemoteConnectionsEv
FN:220,_ZN20CEDROOMSystemCommSAP14SetConnectionsEv
FNDA:1,_ZN20CEDROOMSystemCommSAP14SetConnectionsEv
FN:230,_ZN23CEDROOMSystemDeploymentC2Ev
FNDA:1,_ZN23CEDROOMSystemDeploymentC2Ev
FN:241,_ZN23CEDROOMSystemDeployment6ConfigEP10UAHPhotSatP11CCBKGTCExecP12CCHK_FDIRMngP11CCTCManagerP8CCObsMng
FNDA:1,_ZN23CEDROOMSystemDeployment6ConfigEP10UAHPhotSatP11CCBKGTCExecP12CCHK_FDIRMngP11CCTCManagerP8CCObsMng
FN:267,_ZN23CEDROOMSystemDeployment15StartComponentsEv
FNDA:1,_ZN23CEDROOMSystemDeployment15StartComponentsEv
FN:279,_ZN23CEDROOMSystemDeployment5StartEv
FNDA:1,_ZN23CEDROOMSystemDeployment5StartEv
FN:313,_ZN23CEDROOMSystemDeployment9main_taskEv
FNDA:1,_ZN23CEDROOMSystemDeployment9main_taskEv
DA:11,1
DA:17,1
DA:30,44
DA:36,1
DA:38,1
DA:39,1
DA:40,1
DA:41,1
DA:42,1
DA:43,1
DA:44,1
DA:45,1
DA:46,1
DA:47,1
DA:48,1
DA:53,1
DA:58,1
DA:59,1
DA:60,1
DA:61,1
DA:62,1
DA:63,1
DA:73,1
DA:77,1
DA:79,1
DA:81,0
DA:84,1
DA:88,0
DA:94,0
DA:97,0
DA:101,0
DA:105,0
DA:107,0
DA:109,0
DA:112,0
DA:116,0
DA:122,0
DA:125,0
DA:129,0
DA:133,0
DA:135,0
DA:137,0
DA:140,0
DA:144,0
DA:148,0
DA:150,0
DA:152,0
DA:155,0
DA:164,1
DA:167,1
DA:170,1
DA:173,1
DA:174,1
DA:177,1
DA:178,1
DA:179,1
DA:180,1
DA:183,1
DA:184,1
DA:185,1
DA:187,1
DA:193,1
DA:195,1
DA:199,1
DA:203,1
DA:207,1
DA:213,1
DA:215,1
DA:220,1
DA:222,1
DA:223,1
DA:225,1
DA:230,1
DA:234,1
DA:236,1
DA:241,1
DA:247,1
DA:248,1
DA:249,1
DA:250,1
DA:251,1
DA:253,1
DA:259,1
DA:260,1
DA:262,1
DA:267,1
DA:268,1
DA:269,1
DA:270,1
DA:271,1
DA:272,1
DA:274,1
DA:279,1
DA:283,1
DA:285,1
DA:302,0
DA:313,1
DA:315,1
DA:316,1
DA:317,1
DA:318,1
DA:319,1
DA:320,1
DA:322,0
end_of_record
SF:/home/atcsol/git/proyectofinal2.0/uah_photsat_freertos/asw/dataclasses/CDEvAction/include/public/cdevaction.h
FN:35,_ZN10CDEvActionC2Ev
FNDA:5,_ZN10CDEvActionC2Ev
DA:35,5
DA:36,5
DA:37,5
DA:38,5
end_of_record
SF:/home/atcsol/git/proyectofinal2.0/uah_photsat_freertos/asw/components/cctcmanager/include/public/cctcmanager_iface_v1.h
end_of_record
SF:/home/atcsol/git/proyectofinal2.0/uah_photsat_freertos/service_libraries/edroomsl/edroomsl/include/edroomsl/edroomsl.h
FN:115,_ZN11CEDROOMPoolD0Ev
FNDA:0,_ZN11CEDROOMPoolD0Ev
FN:115,_ZN11CEDROOMPoolD2Ev
FNDA:0,_ZN11CEDROOMPoolD2Ev
FN:236,_ZN17CEDROOMMemoryPoolD0Ev
FNDA:0,_ZN17CEDROOMMemoryPoolD0Ev
FN:236,_ZN17CEDROOMMemoryPoolD2Ev
FNDA:0,_ZN17CEDROOMMemoryPoolD2Ev
FN:726,_ZN19CEDROOMMessagesPoolD0Ev
FNDA:0,_ZN19CEDROOMMessagesPoolD0Ev
FN:726,_ZN19CEDROOMMessagesPoolD2Ev
FNDA:5,_ZN19CEDROOMMessagesPoolD2Ev
FN:761,_ZN26CEDROOMTimeOutMessagesPoolD0Ev
FNDA:0,_ZN26CEDROOMTimeOutMessagesPoolD0Ev
FN:761,_ZN26CEDROOMTimeOutMessagesPoolD2Ev
FNDA:3,_ZN26CEDROOMTimeOutMessagesPoolD2Ev
FN:1812,_ZN16CEDROOMTXChannelD0Ev
FNDA:0,_ZN16CEDROOMTXChannelD0Ev
FN:1812,_ZN16CEDROOMTXChannelD2Ev
FNDA:0,_ZN16CEDROOMTXChannelD2Ev
FN:1883,_ZN21CEDROOMLocalTXChannelD0Ev
FNDA:0,_ZN21CEDROOMLocalTXChannelD0Ev
FN:1883,_ZN21CEDROOMLocalTXChannelD2Ev
FNDA:0,_ZN21CEDROOMLocalTXChannelD2Ev
DA:115,0
DA:115,0
DA:236,0
DA:236,0
DA:726,0
DA:726,5
DA:761,0
DA:761,3
DA:1812,0
DA:1812,0
DA:1883,0
DA:1883,0
end_of_record
SF:/home/atcsol/git/proyectofinal2.0/uah_photsat_freertos/asw/edroom_glue/include/edroom_glue/edroomdeployment.h
end_of_record
TN:
SF:/home/atcsol/git/proyectofinal2.0/uah_photsat_freertos/asw/dataclasses/CDTCHandler/src/cdtchandler.cpp
FN:16,_ZN11CDTCHandlerC2Ev
FNDA:17,_ZN11CDTCHandlerC2Ev
FN:23,_ZN11CDTCHandler19BuildFromDescriptorER17CDTCMemDescriptor
FNDA:2,_ZN11CDTCHandler19BuildFromDescriptorER17CDTCMemDescriptor
FN:29,_ZN11CDTCHandler13DoAcceptationEv
FNDA:2,_ZN11CDTCHandler13DoAcceptationEv
FN:37,_ZN11CDTCHandler14MngTCRejectionER16CDTCAcceptReport
FNDA:0,_ZN11CDTCHandler14MngTCRejectionER16CDTCAcceptReport
FN:45,_ZN11CDTCHandler16MngTCAcceptationEv
FNDA:2,_ZN11CDTCHandler16MngTCAcceptationEv
FN:51,_ZN11CDTCHandler11GetExecCtrlEv
FNDA:2,_ZN11CDTCHandler11GetExecCtrlEv
FN:98,_ZN11CDTCHandler6ExecTCEv
FNDA:2,_ZN11CDTCHandler6ExecTCEv
DA:16,17
DA:18,17
DA:19,17
DA:21,17
DA:23,2
DA:25,2
DA:27,2
DA:29,2
DA:31,2
DA:32,2
DA:34,2
DA:37,0
DA:39,0
DA:41,0
DA:42,0
DA:45,2
DA:47,2
DA:49,2
DA:51,2
DA:54,2
DA:57,2
DA:59,1
DA:61,1
DA:62,1
DA:64,1
DA:66,1
DA:67,1
DA:69,0
DA:72,0
DA:73,0
DA:75,0
DA:80,0
DA:81,0
DA:83,0
DA:85,0
DA:87,0
DA:88,0
DA:90,0
DA:91,0
DA:95,2
DA:98,2
DA:101,2
DA:103,2
DA:106,2
DA:108,2
DA:109,0
DA:110,0
DA:111,0
DA:112,0
DA:113,0
DA:114,0
DA:115,0
DA:116,0
DA:117,0
DA:118,0
DA:119,0
DA:120,0
DA:121,0
DA:122,0
DA:123,0
DA:125,0
DA:126,0
DA:127,0
DA:129,0
DA:130,0
DA:131,0
DA:132,0
DA:133,0
DA:134,0
DA:135,0
DA:136,0
DA:137,0
DA:138,0
DA:139,0
DA:141,0
DA:142,1
DA:143,1
DA:144,1
DA:145,1
DA:146,1
DA:147,1
DA:148,0
DA:150,0
DA:154,2
DA:157,2
end_of_record
SF:/home/atcsol/git/proyectofinal2.0/uah_photsat_freertos/asw/dataclasses/CDTCAcceptReport/include/public/cdtcacceptreport.h
FN:16,_ZN16CDTCAcceptReportC2Ev
FNDA:3,_ZN16CDTCAcceptReportC2Ev
DA:16,3
DA:17,3
DA:18,3
end_of_record
TN:
SF:/home/atcsol/git/proyectofinal2.0/uah_photsat_freertos/asw/dataclasses/CDTCMemDescriptor/src/cdtcmemdescriptor.cpp
FN:12,_ZN17CDTCMemDescriptor9HandleIRQEv
FNDA:0,_ZN17CDTCMemDescriptor9HandleIRQEv
DA:12,0
DA:14,0
end_of_record
TN:
SF:/home/atcsol/git/proyectofinal2.0/uah_photsat_freertos/asw/dataclasses/CDEvAction/src/cdevaction.cpp
FN:11,_ZN10CDEvAction24ExtractEvActionFromQueueEv
FNDA:0,_ZN10CDEvAction24ExtractEvActionFromQueueEv
DA:11,0
DA:13,0
DA:15,0
DA:17,0
DA:21,0
end_of_record
TN:
SF:/home/atcsol/git/proyectofinal2.0/uah_photsat_freertos/service_libraries/edroomsl/edroomsl/include/edroomsl/edroomsl.h
FN:115,_ZN11CEDROOMPoolD0Ev
FNDA:0,_ZN11CEDROOMPoolD0Ev
FN:115,_ZN11CEDROOMPoolD2Ev
FNDA:0,_ZN11CEDROOMPoolD2Ev
FN:236,_ZN17CEDROOMMemoryPoolD0Ev
FNDA:0,_ZN17CEDROOMMemoryPoolD0Ev
FN:236,_ZN17CEDROOMMemoryPoolD2Ev
FNDA:0,_ZN17CEDROOMMemoryPoolD2Ev
FN:314,_ZN26CEDROOMProtectedMemoryPoolD0Ev
FNDA:0,_ZN26CEDROOMProtectedMemoryPoolD0Ev
FN:314,_ZN26CEDROOMProtectedMemoryPoolD2Ev
FNDA:0,_ZN26CEDROOMProtectedMemoryPoolD2Ev
FN:726,_ZN19CEDROOMMessagesPoolD0Ev
FNDA:0,_ZN19CEDROOMMessagesPoolD0Ev
FN:726,_ZN19CEDROOMMessagesPoolD2Ev
FNDA:0,_ZN19CEDROOMMessagesPoolD2Ev
FN:761,_ZN26CEDROOMTimeOutMessagesPoolD0Ev
FNDA:0,_ZN26CEDROOMTimeOutMessagesPoolD0Ev
FN:761,_ZN26CEDROOMTimeOutMessagesPoolD2Ev
FNDA:0,_ZN26CEDROOMTimeOutMessagesPoolD2Ev
FN:1812,_ZN16CEDROOMTXChannelD0Ev
FNDA:0,_ZN16CEDROOMTXChannelD0Ev
FN:1812,_ZN16CEDROOMTXChannelD2Ev
FNDA:0,_ZN16CEDROOMTXChannelD2Ev
FN:1883,_ZN21CEDROOMLocalTXChannelD0Ev
FNDA:0,_ZN21CEDROOMLocalTXChannelD0Ev
FN:1883,_ZN21CEDROOMLocalTXChannelD2Ev
FNDA:0,_ZN21CEDROOMLocalTXChannelD2Ev
DA:115,0
DA:115,0
DA:236,0
DA:236,0
DA:314,0
DA:314,0
DA:726,0
DA:726,0
DA:761,0
DA:761,0
DA:1812,0
DA:1812,0
DA:1883,0
DA:1883,0
end_of_record
SF:/home/atcsol/git/proyectofinal2.0/uah_photsat_freertos/asw/edroom_glue/include/edroom_glue/edroomdeployment.h
FN:164,_ZN23CEDROOMSystemDeployment14GetComp1MemoryEv
FNDA:1,_ZN23CEDROOMSystemDeployment14GetComp1MemoryEv
FN:165,_ZN23CEDROOMSystemDeployment14GetComp2MemoryEv
FNDA:1,_ZN23CEDROOMSystemDeployment14GetComp2MemoryEv
FN:166,_ZN23CEDROOMSystemDeployment14GetComp3MemoryEv
FNDA:1,_ZN23CEDROOMSystemDeployment14GetComp3MemoryEv
FN:167,_ZN23CEDROOMSystemDeployment14GetComp4MemoryEv
FNDA:1,_ZN23CEDROOMSystemDeployment14GetComp4MemoryEv
FN:168,_ZN23CEDROOMSystemDeployment14GetComp5MemoryEv
FNDA:1,_ZN23CEDROOMSystemDeployment14GetComp5MemoryEv
DA:164,1
DA:165,1
DA:166,1
DA:167,1
DA:168,1
end_of_record
SF:/home/atcsol/git/proyectofinal2.0/uah_photsat_freertos/asw/components/ccobsmng/include/public/ccobsmng_iface_v1.h
end_of_record
SF:/home/atcsol/git/proyectofinal2.0/uah_photsat_freertos/asw/components/cctcmanager/include/public/cctcmanager_iface_v1.h
end_of_record
SF:/home/atcsol/git/proyectofinal2.0/uah_photsat_freertos/asw/components/uahphotsat/include/public/uahphotsat_iface_v1.h
end_of_record
SF:/home/atcsol/git/proyectofinal2.0/uah_photsat_freertos/service_libraries/edroomsl/edroombp/include/public/edroombp.h
FN:122,_ZN9Pr_KernelD2Ev
FNDA:0,_ZN9Pr_KernelD2Ev
FN:192,_ZN12Pr_SemaphoreD2Ev
FNDA:0,_ZN12Pr_SemaphoreD2Ev
FN:261,_ZN15Pr_SemaphoreBinD2Ev
FNDA:0,_ZN15Pr_SemaphoreBinD2Ev
FN:337,_ZN15Pr_SemaphoreRecD2Ev
FNDA:0,_ZN15Pr_SemaphoreRecD2Ev
FN:533,_ZN7Pr_TaskD2Ev
FNDA:0,_ZN7Pr_TaskD2Ev
DA:122,0
DA:192,0
DA:193,0
DA:194,0
DA:195,0
DA:261,0
DA:262,0
DA:264,0
DA:337,0
DA:533,0
DA:534,0
DA:536,0
end_of_record
SF:/home/atcsol/git/proyectofinal2.0/uah_photsat_freertos/uahphotsat_mmesp_project.cpp
FN:25,main
FNDA:1,main
DA:25,1
DA:36,1
DA:37,1
DA:38,1
DA:39,1
DA:40,1
DA:42,1
DA:44,1
DA:46,0
end_of_record
SF:/home/atcsol/git/proyectofinal2.0/uah_photsat_freertos/asw/components/cchk_fdirmng/include/public/cchk_fdirmng_iface_v1.h
end_of_record
SF:/home/atcsol/git/proyectofinal2.0/uah_photsat_freertos/asw/components/ccbkgtcexec/include/public/ccbkgtcexec_iface_v1.h
end_of_record
TN:
SF:/home/atcsol/git/proyectofinal2.0/uah_photsat_freertos/llsw/freertos_osswr/Source/timers.c
FN:237,xTimerCreateTimerTask
FNDA:1,xTimerCreateTimerTask
FN:336,xTimerCreate
FNDA:0,xTimerCreate
FN:417,prvInitialiseNewTimer
FNDA:0,prvInitialiseNewTimer
FN:448,xTimerGenericCommandFromTask
FNDA:0,xTimerGenericCommandFromTask
FN:499,xTimerGenericCommandFromISR
FNDA:0,xTimerGenericCommandFromISR
FN:543,xTimerGetTimerDaemonTaskHandle
FNDA:0,xTimerGetTimerDaemonTaskHandle
FN:557,xTimerGetPeriod
FNDA:0,xTimerGetPeriod
FN:571,vTimerSetReloadMode
FNDA:0,vTimerSetReloadMode
FN:596,xTimerGetReloadMode
FNDA:0,xTimerGetReloadMode
FN:624,uxTimerGetReloadMode
FNDA:0,uxTimerGetReloadMode
FN:638,xTimerGetExpiryTime
FNDA:0,xTimerGetExpiryTime
FN:685,pcTimerGetName
FNDA:0,pcTimerGetName
FN:699,prvReloadTimer
FNDA:0,prvReloadTimer
FN:718,prvProcessExpiredTimer
FNDA:0,prvProcessExpiredTimer
FN:748,prvTimerTask
FNDA:1,prvTimerTask
FN:782,prvProcessTimerOrBlockTask
FNDA:1,prvProcessTimerOrBlockTask
FN:844,prvGetNextExpireTime
FNDA:1,prvGetNextExpireTime
FN:871,prvSampleTimeNow
FNDA:1,prvSampleTimeNow
FN:894,prvInsertTimerInActiveList
FNDA:0,prvInsertTimerInActiveList
FN:938,prvProcessReceivedCommands
FNDA:0,prvProcessReceivedCommands
FN:1086,prvSwitchTimerLists
FNDA:0,prvSwitchTimerLists
FN:1111,prvCheckForValidListAndQueue
FNDA:1,prvCheckForValidListAndQueue
FN:1162,xTimerIsTimerActive
FNDA:0,xTimerIsTimerActive
FN:1191,pvTimerGetTimerID
FNDA:0,pvTimerGetTimerID
FN:1212,vTimerSetTimerID
FNDA:0,vTimerSetTimerID
FN:1233,xTimerPendFunctionCallFromISR
FNDA:0,xTimerPendFunctionCallFromISR
FN:1263,xTimerPendFunctionCall
FNDA:0,xTimerPendFunctionCall
DA:237,1
DA:239,1
DA:247,1
DA:249,1
DA:310,1
DA:326,1
DA:330,1
DA:336,0
DA:349,0
DA:351,0
DA:356,0
DA:357,0
DA:362,0
DA:417,0
DA:425,0
DA:429,0
DA:433,0
DA:434,0
DA:435,0
DA:436,0
DA:437,0
DA:439,0
DA:441,0
DA:445,0
DA:448,0
DA:454,0
DA:461,0
DA:465,0
DA:468,0
DA:469,0
DA:470,0
DA:472,0
DA:474,0
DA:476,0
DA:478,0
DA:482,0
DA:495,0
DA:499,0
DA:505,0
DA:512,0
DA:516,0
DA:519,0
DA:520,0
DA:521,0
DA:523,0
DA:525,0
DA:527,0
DA:539,0
DA:543,0
DA:549,0
DA:553,0
DA:557,0
DA:559,0
DA:563,0
DA:567,0
DA:571,0
DA:574,0
DA:578,0
DA:579,0
DA:581,0
DA:583,0
DA:587,0
DA:590,0
DA:593,0
DA:596,0
DA:598,0
DA:603,0
DA:604,0
DA:606,0
DA:609,0
DA:614,0
DA:617,0
DA:621,0
DA:624,0
DA:630,0
DA:634,0
DA:638,0
DA:640,0
DA:645,0
DA:646,0
DA:650,0
DA:685,0
DA:687,0
DA:691,0
DA:695,0
DA:699,0
DA:706,0
DA:709,0
DA:713,0
DA:715,0
DA:718,0
DA:724,0
DA:729,0
DA:733,0
DA:735,0
DA:739,0
DA:744,0
DA:745,0
DA:748,1
DA:770,1
DA:774,1
DA:777,0
DA:782,1
DA:788,1
DA:795,1
DA:797,1
DA:800,1
DA:802,0
DA:803,0
DA:813,1
DA:817,1
DA:820,1
DA:822,1
DA:828,1
DA:838,0
DA:841,0
DA:844,1
DA:855,1
DA:857,1
DA:859,0
DA:864,1
DA:867,1
DA:871,1
DA:876,1
DA:878,1
DA:880,0
DA:881,0
DA:885,1
DA:888,1
DA:890,1
DA:894,0
DA:899,0
DA:901,0
DA:902,0
DA:904,0
DA:908,0
DA:912,0
DA:916,0
DA:921,0
DA:926,0
DA:930,0
DA:934,0
DA:938,0
DA:940,0
DA:945,0
DA:951,0
DA:953,0
DA:957,0
DA:960,0
DA:971,0
DA:975,0
DA:977,0
DA:980,0
DA:995,0
DA:997,0
DA:999,0
DA:1004,0
DA:1006,0
DA:1010,0
DA:1012,0
DA:1016,0
DA:1021,0
DA:1028,0
DA:1030,0
DA:1033,0
DA:1034,0
DA:1036,0
DA:1038,0
DA:1039,0
DA:1040,0
DA:1048,0
DA:1049,0
DA:1051,0
DA:1057,0
DA:1059,0
DA:1063,0
DA:1075,0
DA:1077,0
DA:1079,0
DA:1081,0
DA:1083,0
DA:1086,0
DA:1095,0
DA:1097,0
DA:1102,0
DA:1105,0
DA:1106,0
DA:1107,0
DA:1108,0
DA:1111,1
DA:1116,1
DA:1118,1
DA:1120,1
DA:1121,1
DA:1122,1
DA:1123,1
DA:1136,1
DA:1142,1
DA:1144,1
DA:1158,1
DA:1159,1
DA:1162,0
DA:1165,0
DA:1169,0
DA:1172,0
DA:1174,0
DA:1176,0
DA:1180,0
DA:1183,0
DA:1187,0
DA:1191,0
DA:1193,0
DA:1198,0
DA:1200,0
DA:1202,0
DA:1204,0
DA:1208,0
DA:1212,0
DA:1215,0
DA:1219,0
DA:1221,0
DA:1223,0
DA:1225,0
DA:1228,0
DA:1233,0
DA:1245,0
DA:1246,0
DA:1247,0
DA:1248,0
DA:1250,0
DA:1255,0
DA:1263,0
DA:1276,0
DA:1280,0
DA:1281,0
DA:1282,0
DA:1283,0
DA:1285,0
DA:1290,0
end_of_record
TN:
SF:/home/atcsol/git/proyectofinal2.0/uah_photsat_freertos/service_libraries/edroomsl/edroombp/include/public/edroombp.h
FN:192,_ZN12Pr_SemaphoreD2Ev
FNDA:0,_ZN12Pr_SemaphoreD2Ev
FN:310,_ZN15Pr_SemaphoreRec4WaitEv
FNDA:0,_ZN15Pr_SemaphoreRec4WaitEv
FN:319,_ZN15Pr_SemaphoreRec6SignalEv
FNDA:0,_ZN15Pr_SemaphoreRec6SignalEv
FN:337,_ZN15Pr_SemaphoreRecD2Ev
FNDA:0,_ZN15Pr_SemaphoreRecD2Ev
DA:192,0
DA:193,0
DA:194,0
DA:195,0
DA:310,0
DA:319,0
DA:337,0
end_of_record
SF:/home/atcsol/git/proyectofinal2.0/uah_photsat_freertos/llsw/emu_sc_channel_drv/src/emu_sc_channel_drv.cpp
FN:39,_Z14RXLockFunctionv
FNDA:10,_Z14RXLockFunctionv
FN:42,_Z16RXUnlockFunctionv
FNDA:10,_Z16RXUnlockFunctionv
FN:48,_Z14TXLockFunctionv
FNDA:143,_Z14TXLockFunctionv
FN:51,_Z16TXUnlockFunctionv
FNDA:143,_Z16TXUnlockFunctionv
FN:55,SC_Channel_Init
FNDA:1,SC_Channel_Init
FN:61,_Z17SC_Channel_RxDatav
FNDA:0,_Z17SC_Channel_RxDatav
FN:66,_Z20SC_Channel_GetNextTCR17CDTCMemDescriptor
FNDA:2,_Z20SC_Channel_GetNextTCR17CDTCMemDescriptor
FN:87,_Z27SC_Channel_HandlePendingTCsv
FNDA:2,_Z27SC_Channel_HandlePendingTCsv
FN:95,SC_Channel_TxTM
FNDA:143,SC_Channel_TxTM
DA:39,10
DA:40,10
DA:41,10
DA:42,10
DA:43,10
DA:44,10
DA:48,143
DA:49,143
DA:50,143
DA:51,143
DA:52,143
DA:53,143
DA:55,1
DA:56,1
DA:58,1
DA:59,1
DA:61,0
DA:63,0
DA:66,2
DA:72,2
DA:74,2
DA:75,2
DA:77,33
DA:78,31
DA:82,2
DA:85,2
DA:87,2
DA:90,2
DA:92,0
DA:93,2
DA:95,143
DA:98,143
DA:99,143
DA:100,143
DA:103,143
end_of_record
TN:
SF:/home/atcsol/git/proyectofinal2.0/uah_photsat_freertos/llsw/emu_watchdog_drv/src/watchdog_drv.c
FN:13,watchdog_drv_startup
FNDA:0,watchdog_drv_startup
FN:19,watchdog_drv_disable_signal
FNDA:1,watchdog_drv_disable_signal
FN:25,watchdog_drv_signal
FNDA:0,watchdog_drv_signal
DA:13,0
DA:17,0
DA:19,1
DA:21,1
DA:22,1
DA:25,0
DA:29,0
end_of_record
TN:
SF:/home/atcsol/git/proyectofinal2.0/uah_photsat_freertos/llsw/emu_hw_timecode_drv/src/emu_hw_timecode_drv.cpp
FN:18,_Z20EmuHwTimeCodeStartUpv
FNDA:1,_Z20EmuHwTimeCodeStartUpv
FN:25,_Z23EmuHwTimeCodePassSecondv
FNDA:130,_Z23EmuHwTimeCodePassSecondv
FN:38,EmuHwTimeCodeSetNextOBT
FNDA:0,EmuHwTimeCodeSetNextOBT
FN:43,EmuHwTimeCodeGetCurrentOBT
FNDA:404,EmuHwTimeCodeGetCurrentOBT
FN:49,EmuHwTimeCodeGetCurrentFineTimeOBT
FNDA:0,EmuHwTimeCodeGetCurrentFineTimeOBT
DA:18,1
DA:21,1
DA:23,1
DA:25,130
DA:27,130
DA:28,130
DA:32,130
DA:36,129
DA:38,0
DA:40,0
DA:41,0
DA:43,404
DA:45,404
DA:49,0
DA:51,0
end_of_record
TN:
SF:/home/atcsol/git/proyectofinal2.0/uah_photsat_freertos/llsw/emu_adc_drv/src/emu_adc_drv.c
FN:51,get_noise
FNDA:650,get_noise
FN:60,sample_adc_channel
FNDA:650,sample_adc_channel
FN:77,sample_sys_data_pool_params
FNDA:129,sample_sys_data_pool_params
FN:87,init_adc_channel
FNDA:1,init_adc_channel
DA:51,650
DA:54,650
DA:57,650
DA:60,650
DA:62,650
DA:64,650
DA:66,650
DA:68,650
DA:72,650
DA:77,129
DA:79,774
DA:81,645
DA:85,129
DA:87,1
DA:89,6
DA:91,5
DA:110,1
end_of_record
TN:
SF:/home/atcsol/git/proyectofinal2.0/uah_photsat_freertos/llsw/device_drv/src/emu_device_drv.c
FN:14,device_drv_on_off
FNDA:0,device_drv_on_off
FN:28,device_drv_is_on_off_address_valid
FNDA:0,device_drv_is_on_off_address_valid
DA:14,0
DA:16,0
DA:18,0
DA:19,0
DA:20,0
DA:21,0
DA:23,0
DA:25,0
DA:28,0
DA:30,0
DA:32,0
DA:33,0
DA:34,0
DA:35,0
DA:37,0
end_of_record
TN:
SF:/home/atcsol/git/proyectofinal2.0/uah_photsat_freertos/llsw/emu_sat_attitude/src/emu_sat_attitude.cpp
FN:26,emu_attitude_init
FNDA:1,emu_attitude_init
FN:37,emu_attitude_apply_ctrl
FNDA:1265,emu_attitude_apply_ctrl
FN:45,emu_attitude_get_state
FNDA:1265,emu_attitude_get_state
DA:26,1
DA:28,1
DA:29,1
DA:30,1
DA:31,1
DA:32,1
DA:33,1
DA:34,1
DA:35,1
DA:37,1265
DA:39,1265
DA:40,1265
DA:43,1265
DA:45,1265
DA:47,1265
DA:53,1265
DA:54,1265
DA:55,1265
DA:58,1265
DA:61,1265
DA:62,1265
DA:65,1265
DA:66,1265
DA:67,1265
DA:68,1265
DA:71,1265
DA:72,1265
DA:73,1265
DA:74,1265
DA:77,1265
end_of_record
TN:
SF:/home/atcsol/git/proyectofinal2.0/uah_photsat_freertos/llsw/emu_gss/src/emu_gss_pus_service03.cpp
FN:42,_ZN19EmuGSS_TCProgram3_5C2EjPKct
FNDA:0,_ZN19EmuGSS_TCProgram3_5C2EjPKct
FN:51,_ZN19EmuGSS_TCProgram3_514BuildTCAppDataER17tc_mem_descriptor
FNDA:0,_ZN19EmuGSS_TCProgram3_514BuildTCAppDataER17tc_mem_descriptor
FN:58,_ZN19EmuGSS_TCProgram3_6C2EjPKct
FNDA:0,_ZN19EmuGSS_TCProgram3_6C2EjPKct
FN:67,_ZN19EmuGSS_TCProgram3_614BuildTCAppDataER17tc_mem_descriptor
FNDA:0,_ZN19EmuGSS_TCProgram3_614BuildTCAppDataER17tc_mem_descriptor
FN:74,_ZN20EmuGSS_TCProgram3_31C2EjPKcth
FNDA:0,_ZN20EmuGSS_TCProgram3_31C2EjPKcth
FN:85,_ZN20EmuGSS_TCProgram3_3114BuildTCAppDataER17tc_mem_descriptor
FNDA:0,_ZN20EmuGSS_TCProgram3_3114BuildTCAppDataER17tc_mem_descriptor
FN:94,_Z18EmuGSS_ShowServ3TMPK17tm_mem_descriptor
FNDA:129,_Z18EmuGSS_ShowServ3TMPK17tm_mem_descriptor
FN:101,_ZN17GSSServ3TMHandlerC2EPKh
FNDA:129,_ZN17GSSServ3TMHandlerC2EPKh
FN:106,_ZN17GSSServ3TMHandler6ShowTMEv
FNDA:129,_ZN17GSSServ3TMHandler6ShowTMEv
FN:116,_ZN17GSSServ3TMHandler11ShowTM_3_25Ev
FNDA:129,_ZN17GSSServ3TMHandler11ShowTM_3_25Ev
FN:128,_ZN17GSSServ3TMHandler15ShowTM_3_25_SIDEt
FNDA:129,_ZN17GSSServ3TMHandler15ShowTM_3_25_SIDEt
DA:42,0
DA:43,0
DA:45,0
DA:47,0
DA:48,0
DA:49,0
DA:51,0
DA:53,0
DA:54,0
DA:56,0
DA:58,0
DA:59,0
DA:61,0
DA:63,0
DA:64,0
DA:65,0
DA:67,0
DA:69,0
DA:70,0
DA:72,0
DA:74,0
DA:75,0
DA:77,0
DA:79,0
DA:80,0
DA:82,0
DA:83,0
DA:85,0
DA:87,0
DA:88,0
DA:89,0
DA:91,0
DA:94,129
DA:96,129
DA:97,129
DA:99,129
DA:101,129
DA:102,129
DA:104,129
DA:106,129
DA:108,129
DA:109,129
DA:110,129
DA:111,129
DA:114,129
DA:116,129
DA:118,129
DA:120,129
DA:122,129
DA:124,129
DA:128,129
DA:131,129
DA:133,129
DA:135,129
DA:137,1032
DA:141,903
DA:143,903
DA:145,903
DA:146,903
DA:148,0
DA:149,0
DA:151,0
DA:153,387
DA:154,387
DA:156,387
DA:157,516
DA:158,516
DA:160,516
DA:162,0
DA:163,0
DA:167,903
DA:169,903
DA:170,129
DA:171,129
DA:173,774
DA:174,129
DA:175,129
DA:176,129
DA:180,645
DA:181,645
DA:188,129
end_of_record
TN:
SF:/home/atcsol/git/proyectofinal2.0/uah_photsat_freertos/llsw/emu_gss/src/emu_gss.cpp
FN:38,_Z13EmuGSS_ShowTMPK17tm_mem_descriptor
FNDA:143,_Z13EmuGSS_ShowTMPK17tm_mem_descriptor
FN:78,_Z22EmuGSS_PrintCurrentOBTv
FNDA:131,_Z22EmuGSS_PrintCurrentOBTv
FN:84,_Z17EmuGSS_PassSecondv
FNDA:130,_Z17EmuGSS_PassSecondv
FN:94,_Z18EmuGSS_RxCurrentTCP17CDTCMemDescriptor
FNDA:0,_Z18EmuGSS_RxCurrentTCP17CDTCMemDescriptor
FN:100,_Z24EmuGSS_SendProgrammedTCsv
FNDA:130,_Z24EmuGSS_SendProgrammedTCsv
DA:38,143
DA:42,143
DA:43,143
DA:45,143
DA:47,143
DA:49,6
DA:51,6
DA:53,6
DA:55,129
DA:56,129
DA:57,129
DA:59,0
DA:60,0
DA:61,0
DA:63,1
DA:64,1
DA:65,1
DA:66,0
DA:67,0
DA:68,0
DA:69,0
DA:70,0
DA:71,0
DA:74,143
DA:76,143
DA:78,131
DA:80,131
DA:82,131
DA:84,130
DA:88,130
DA:90,130
DA:92,129
DA:94,0
DA:98,0
DA:100,130
DA:102,130
DA:104,130
DA:105,132
DA:107,2
DA:108,2
DA:109,2
DA:111,2
DA:112,2
DA:117,2
DA:119,2
DA:121,2
DA:123,2
DA:125,2
DA:130,130
DA:132,2
DA:136,129
end_of_record
SF:/home/atcsol/git/proyectofinal2.0/uah_photsat_freertos/llsw/emu_gss/include/emu_gss/emu_gss_tc_program.h
FN:48,_ZN16EmuGSS_TCProgram7GetTypeEv
FNDA:2,_ZN16EmuGSS_TCProgram7GetTypeEv
FN:49,_ZN16EmuGSS_TCProgram10GetSubtypeEv
FNDA:2,_ZN16EmuGSS_TCProgram10GetSubtypeEv
FN:50,_ZN16EmuGSS_TCProgram8GetBriefEv
FNDA:2,_ZN16EmuGSS_TCProgram8GetBriefEv
DA:48,2
DA:49,2
DA:50,2
end_of_record
TN:
SF:/home/atcsol/git/proyectofinal2.0/uah_photsat_freertos/llsw/emu_gss/src/emu_gss_pus_service129.cpp
FN:17,_ZN21EmuGSS_TCProgram129_1C2EjPKcssh
FNDA:1,_ZN21EmuGSS_TCProgram129_1C2EjPKcssh
FN:31,_ZN21EmuGSS_TCProgram129_114BuildTCAppDataER17tc_mem_descriptor
FNDA:1,_ZN21EmuGSS_TCProgram129_114BuildTCAppDataER17tc_mem_descriptor
FN:41,_ZN21EmuGSS_TCProgram129_2C2EjPKcfff
FNDA:0,_ZN21EmuGSS_TCProgram129_2C2EjPKcfff
FN:54,_ZN21EmuGSS_TCProgram129_214BuildTCAppDataER17tc_mem_descriptor
FNDA:0,_ZN21EmuGSS_TCProgram129_214BuildTCAppDataER17tc_mem_descriptor
FN:63,_ZN21EmuGSS_TCProgram129_3C2EjPKc
FNDA:0,_ZN21EmuGSS_TCProgram129_3C2EjPKc
FN:71,_ZN21EmuGSS_TCProgram129_3C2Ev
FNDA:0,_ZN21EmuGSS_TCProgram129_3C2Ev
FN:79,_ZN21EmuGSS_TCProgram129_314BuildTCAppDataER17tc_mem_descriptor
FNDA:0,_ZN21EmuGSS_TCProgram129_314BuildTCAppDataER17tc_mem_descriptor
DA:17,1
DA:20,1
DA:22,1
DA:25,1
DA:26,1
DA:27,1
DA:28,1
DA:29,1
DA:31,1
DA:35,1
DA:36,1
DA:37,1
DA:38,1
DA:41,0
DA:43,0
DA:45,0
DA:48,0
DA:49,0
DA:50,0
DA:51,0
DA:52,0
DA:54,0
DA:57,0
DA:58,0
DA:59,0
DA:60,0
DA:63,0
DA:64,0
DA:66,0
DA:68,0
DA:69,0
DA:71,0
DA:72,0
DA:76,0
DA:79,0
DA:83,0
end_of_record
TN:
SF:/home/atcsol/git/proyectofinal2.0/uah_photsat_freertos/llsw/emu_gss/src/emu_gss_pus_service05.cpp
FN:37,_ZN19EmuGSS_TCProgram5_5C2EjPKct
FNDA:0,_ZN19EmuGSS_TCProgram5_5C2EjPKct
FN:46,_ZN19EmuGSS_TCProgram5_514BuildTCAppDataER17tc_mem_descriptor
FNDA:0,_ZN19EmuGSS_TCProgram5_514BuildTCAppDataER17tc_mem_descriptor
FN:53,_ZN19EmuGSS_TCProgram5_6C2EjPKct
FNDA:0,_ZN19EmuGSS_TCProgram5_6C2EjPKct
FN:62,_ZN19EmuGSS_TCProgram5_614BuildTCAppDataER17tc_mem_descriptor
FNDA:0,_ZN19EmuGSS_TCProgram5_614BuildTCAppDataER17tc_mem_descriptor
FN:70,_Z18EmuGSS_ShowServ5TMPK17tm_mem_descriptor
FNDA:1,_Z18EmuGSS_ShowServ5TMPK17tm_mem_descriptor
FN:77,_ZN17GSSServ5TMHandlerC2EPKh
FNDA:1,_ZN17GSSServ5TMHandlerC2EPKh
FN:82,_ZN17GSSServ5TMHandler6ShowTMEv
FNDA:1,_ZN17GSSServ5TMHandler6ShowTMEv
FN:101,_ZN17GSSServ5TMHandler10ShowTM_5_1Ev
FNDA:1,_ZN17GSSServ5TMHandler10ShowTM_5_1Ev
FN:129,_ZN17GSSServ5TMHandler10ShowTM_5_2Ev
FNDA:0,_ZN17GSSServ5TMHandler10ShowTM_5_2Ev
FN:137,_ZN17GSSServ5TMHandler10ShowTM_5_3Ev
FNDA:0,_ZN17GSSServ5TMHandler10ShowTM_5_3Ev
FN:145,_ZN17GSSServ5TMHandler10ShowTM_5_4Ev
FNDA:0,_ZN17GSSServ5TMHandler10ShowTM_5_4Ev
DA:37,0
DA:38,0
DA:40,0
DA:42,0
DA:43,0
DA:44,0
DA:46,0
DA:48,0
DA:49,0
DA:51,0
DA:53,0
DA:54,0
DA:56,0
DA:58,0
DA:59,0
DA:60,0
DA:62,0
DA:64,0
DA:65,0
DA:67,0
DA:70,1
DA:72,1
DA:73,1
DA:75,1
DA:77,1
DA:78,1
DA:80,1
DA:82,1
DA:84,1
DA:85,1
DA:86,1
DA:87,1
DA:88,0
DA:89,0
DA:90,0
DA:91,0
DA:92,0
DA:93,0
DA:94,0
DA:95,0
DA:96,0
DA:99,1
DA:101,1
DA:103,1
DA:105,1
DA:107,1
DA:109,1
DA:111,1
DA:112,1
DA:114,0
DA:116,0
DA:117,0
DA:119,0
DA:121,0
DA:122,0
DA:123,0
DA:124,0
DA:126,1
DA:127,1
DA:129,0
DA:131,0
DA:133,0
DA:135,0
DA:137,0
DA:139,0
DA:141,0
DA:143,0
DA:145,0
DA:147,0
DA:149,0
DA:151,0
DA:152,0
DA:154,0
DA:160,0
DA:162,0
DA:164,0
DA:165,0
DA:166,0
DA:167,0
DA:169,0
DA:170,0
DA:171,0
DA:172,0
DA:173,0
DA:175,0
DA:178,0
DA:179,0
DA:181,0
DA:182,0
DA:184,0
DA:186,0
DA:188,0
DA:190,0
DA:193,0
end_of_record
TN:
SF:/home/atcsol/git/proyectofinal2.0/uah_photsat_freertos/llsw/emu_gss/src/emu_gss_sys_data_pool.cpp
FN:15,_ZN14GSSSysDataPool12ShowPIDValueEt14data_pool_item
FNDA:903,_ZN14GSSSysDataPool12ShowPIDValueEt14data_pool_item
DA:15,903
DA:19,903
DA:21,903
DA:23,0
DA:25,0
DA:27,0
DA:28,0
DA:30,0
DA:34,0
DA:38,0
DA:39,516
DA:41,516
DA:42,129
DA:43,129
DA:44,129
DA:45,129
DA:49,129
DA:51,129
DA:52,129
DA:53,129
DA:54,129
DA:57,129
DA:60,129
DA:61,129
DA:62,129
DA:63,129
DA:65,129
DA:66,129
DA:67,129
DA:68,129
DA:69,129
DA:71,129
DA:74,0
DA:75,0
DA:76,0
DA:80,516
DA:82,387
DA:84,387
DA:85,0
DA:87,387
DA:89,129
DA:91,258
DA:92,129
DA:94,129
DA:95,129
DA:99,387
DA:101,387
DA:102,0
DA:103,0
DA:106,903
end_of_record
TN:
SF:/home/atcsol/git/proyectofinal2.0/uah_photsat_freertos/llsw/emu_gss/src/emu_gss_pus_service09.cpp
FN:33,_ZN21EmuGSS_TCProgram9_129C2EjPKcj
FNDA:0,_ZN21EmuGSS_TCProgram9_129C2EjPKcj
FN:43,_ZN21EmuGSS_TCProgram9_12914BuildTCAppDataER17tc_mem_descriptor
FNDA:0,_ZN21EmuGSS_TCProgram9_12914BuildTCAppDataER17tc_mem_descriptor
DA:33,0
DA:35,0
DA:37,0
DA:39,0
DA:40,0
DA:41,0
DA:43,0
DA:45,0
DA:47,0
end_of_record
TN:
SF:/home/atcsol/git/proyectofinal2.0/uah_photsat_freertos/llsw/emu_gss/src/emu_gss_pus_service12.cpp
FN:41,_ZN20EmuGSS_TCProgram12_1C2EjPKct
FNDA:0,_ZN20EmuGSS_TCProgram12_1C2EjPKct
FN:50,_ZN20EmuGSS_TCProgram12_114BuildTCAppDataER17tc_mem_descriptor
FNDA:0,_ZN20EmuGSS_TCProgram12_114BuildTCAppDataER17tc_mem_descriptor
FN:57,_ZN20EmuGSS_TCProgram12_2C2EjPKct
FNDA:0,_ZN20EmuGSS_TCProgram12_2C2EjPKct
FN:66,_ZN20EmuGSS_TCProgram12_214BuildTCAppDataER17tc_mem_descriptor
FNDA:0,_ZN20EmuGSS_TCProgram12_214BuildTCAppDataER17tc_mem_descriptor
FN:73,_ZN33EmuGSS_TCProgram12_5_Limit_UINT32C2EjPKctthhjtjt
FNDA:0,_ZN33EmuGSS_TCProgram12_5_Limit_UINT32C2EjPKctthhjtjt
FN:91,_ZN33EmuGSS_TCProgram12_5_Limit_UINT3214BuildTCAppDataER17tc_mem_descriptor
FNDA:0,_ZN33EmuGSS_TCProgram12_5_Limit_UINT3214BuildTCAppDataER17tc_mem_descriptor
FN:107,_ZN32EmuGSS_TCProgram12_5_Limit_UINT8C2EjPKctthhhtht
FNDA:0,_ZN32EmuGSS_TCProgram12_5_Limit_UINT8C2EjPKctthhhtht
FN:125,_ZN32EmuGSS_TCProgram12_5_Limit_UINT814BuildTCAppDataER17tc_mem_descriptor
FNDA:0,_ZN32EmuGSS_TCProgram12_5_Limit_UINT814BuildTCAppDataER17tc_mem_descriptor
FN:141,_ZN32EmuGSS_TCProgram12_5_Value_UINT8C2EjPKctthhhht
FNDA:0,_ZN32EmuGSS_TCProgram12_5_Value_UINT8C2EjPKctthhhht
FN:158,_ZN32EmuGSS_TCProgram12_5_Value_UINT814BuildTCAppDataER17tc_mem_descriptor
FNDA:0,_ZN32EmuGSS_TCProgram12_5_Value_UINT814BuildTCAppDataER17tc_mem_descriptor
FN:173,_ZN20EmuGSS_TCProgram12_6C2EjPKct
FNDA:0,_ZN20EmuGSS_TCProgram12_6C2EjPKct
FN:182,_ZN20EmuGSS_TCProgram12_614BuildTCAppDataER17tc_mem_descriptor
FNDA:0,_ZN20EmuGSS_TCProgram12_614BuildTCAppDataER17tc_mem_descriptor
FN:190,_Z19EmuGSS_ShowServ12TMPK17tm_mem_descriptor
FNDA:0,_Z19EmuGSS_ShowServ12TMPK17tm_mem_descriptor
FN:197,_ZN18GSSServ12TMHandlerC2EPKh
FNDA:0,_ZN18GSSServ12TMHandlerC2EPKh
FN:202,_ZN18GSSServ12TMHandler6ShowTMEv
FNDA:0,_ZN18GSSServ12TMHandler6ShowTMEv
FN:212,_ZN18GSSServ12TMHandler15ShowValueStatusE18check_value_status
FNDA:0,_ZN18GSSServ12TMHandler15ShowValueStatusE18check_value_status
FN:228,_ZN18GSSServ12TMHandler15ShowLimitStatusE19check_limits_status
FNDA:0,_ZN18GSSServ12TMHandler15ShowLimitStatusE19check_limits_status
FN:249,_ZN18GSSServ12TMHandler12ShowTM_12_12Ev
FNDA:0,_ZN18GSSServ12TMHandler12ShowTM_12_12Ev
DA:41,0
DA:42,0
DA:44,0
DA:46,0
DA:47,0
DA:48,0
DA:50,0
DA:52,0
DA:53,0
DA:55,0
DA:57,0
DA:58,0
DA:60,0
DA:62,0
DA:63,0
DA:64,0
DA:66,0
DA:68,0
DA:69,0
DA:71,0
DA:73,0
DA:76,0
DA:78,0
DA:80,0
DA:81,0
DA:82,0
DA:83,0
DA:84,0
DA:85,0
DA:86,0
DA:87,0
DA:88,0
DA:89,0
DA:91,0
DA:94,0
DA:95,0
DA:96,0
DA:97,0
DA:98,0
DA:99,0
DA:100,0
DA:101,0
DA:102,0
DA:103,0
DA:105,0
DA:107,0
DA:110,0
DA:112,0
DA:114,0
DA:115,0
DA:116,0
DA:117,0
DA:118,0
DA:119,0
DA:120,0
DA:121,0
DA:122,0
DA:123,0
DA:125,0
DA:128,0
DA:129,0
DA:130,0
DA:131,0
DA:132,0
DA:133,0
DA:134,0
DA:135,0
DA:136,0
DA:137,0
DA:139,0
DA:141,0
DA:144,0
DA:146,0
DA:148,0
DA:149,0
DA:150,0
DA:151,0
DA:152,0
DA:153,0
DA:154,0
DA:155,0
DA:156,0
DA:158,0
DA:161,0
DA:162,0
DA:163,0
DA:164,0
DA:165,0
DA:166,0
DA:167,0
DA:168,0
DA:169,0
DA:171,0
DA:173,0
DA:174,0
DA:176,0
DA:178,0
DA:179,0
DA:180,0
DA:182,0
DA:184,0
DA:185,0
DA:187,0
DA:190,0
DA:192,0
DA:193,0
DA:195,0
DA:197,0
DA:198,0
DA:200,0
DA:202,0
DA:204,0
DA:205,0
DA:206,0
DA:207,0
DA:210,0
DA:212,0
DA:214,0
DA:216,0
DA:217,0
DA:218,0
DA:219,0
DA:220,0
DA:221,0
DA:222,0
DA:223,0
DA:224,0
DA:226,0
DA:228,0
DA:230,0
DA:232,0
DA:233,0
DA:234,0
DA:235,0
DA:236,0
DA:237,0
DA:238,0
DA:239,0
DA:240,0
DA:241,0
DA:242,0
DA:243,0
DA:247,0
DA:249,0
DA:254,0
DA:256,0
DA:258,0
DA:260,0
DA:262,0
DA:268,0
DA:270,0
DA:272,0
DA:274,0
DA:275,0
DA:276,0
DA:278,0
DA:279,0
DA:281,0
DA:283,0
DA:284,0
DA:285,0
DA:289,0
DA:291,0
DA:293,0
DA:295,0
DA:299,0
DA:300,0
DA:302,0
DA:304,0
DA:306,0
DA:308,0
DA:312,0
DA:313,0
DA:317,0
DA:318,0
DA:321,0
DA:323,0
DA:324,0
DA:325,0
DA:326,0
DA:327,0
DA:329,0
DA:332,0
DA:334,0
DA:335,0
DA:338,0
DA:339,0
DA:340,0
DA:343,0
DA:344,0
DA:345,0
DA:347,0
DA:350,0
DA:351,0
DA:352,0
DA:354,0
DA:355,0
DA:356,0
DA:360,0
DA:362,0
DA:366,0
end_of_record
TN:
SF:/home/atcsol/git/proyectofinal2.0/uah_photsat_freertos/llsw/emu_gss/src/emu_gss_pus_service128.cpp
FN:33,_ZN21EmuGSS_TCProgram128_1C2EjPKc
FNDA:1,_ZN21EmuGSS_TCProgram128_1C2EjPKc
FN:42,_ZN21EmuGSS_TCProgram128_1C2Ev
FNDA:0,_ZN21EmuGSS_TCProgram128_1C2Ev
FN:49,_ZN21EmuGSS_TCProgram128_114BuildTCAppDataER17tc_mem_descriptor
FNDA:1,_ZN21EmuGSS_TCProgram128_114BuildTCAppDataER17tc_mem_descriptor
DA:33,1
DA:34,1
DA:36,1
DA:38,1
DA:39,1
DA:42,0
DA:43,0
DA:47,0
DA:49,1
DA:52,1
end_of_record
TN:
SF:/home/atcsol/git/proyectofinal2.0/uah_photsat_freertos/llsw/emu_gss/src/emu_gss_pus_service19.cpp
FN:53,_ZN31EmuGSS_TCProgram19_1_Action_2_1C2EjPKct20DeviceCommandOnOff_t
FNDA:0,_ZN31EmuGSS_TCProgram19_1_Action_2_1C2EjPKct20DeviceCommandOnOff_t
FN:63,_ZN31EmuGSS_TCProgram19_1_Action_2_114BuildTCAppDataER17tc_mem_descriptor
FNDA:0,_ZN31EmuGSS_TCProgram19_1_Action_2_114BuildTCAppDataER17tc_mem_descriptor
FN:79,_ZN33EmuGSS_TCProgram19_1_Action_128_1C2EjPKct
FNDA:0,_ZN33EmuGSS_TCProgram19_1_Action_128_1C2EjPKct
FN:88,_ZN33EmuGSS_TCProgram19_1_Action_128_114BuildTCAppDataER17tc_mem_descriptor
FNDA:0,_ZN33EmuGSS_TCProgram19_1_Action_128_114BuildTCAppDataER17tc_mem_descriptor
FN:107,_ZN33EmuGSS_TCProgram19_1_Action_129_3C2EjPKct
FNDA:0,_ZN33EmuGSS_TCProgram19_1_Action_129_3C2EjPKct
FN:116,_ZN33EmuGSS_TCProgram19_1_Action_129_314BuildTCAppDataER17tc_mem_descriptor
FNDA:0,_ZN33EmuGSS_TCProgram19_1_Action_129_314BuildTCAppDataER17tc_mem_descriptor
FN:134,_ZN20EmuGSS_TCProgram19_2C2EjPKct
FNDA:0,_ZN20EmuGSS_TCProgram19_2C2EjPKct
FN:143,_ZN20EmuGSS_TCProgram19_214BuildTCAppDataER17tc_mem_descriptor
FNDA:0,_ZN20EmuGSS_TCProgram19_214BuildTCAppDataER17tc_mem_descriptor
FN:149,_ZN20EmuGSS_TCProgram19_4C2EjPKct
FNDA:0,_ZN20EmuGSS_TCProgram19_4C2EjPKct
FN:158,_ZN20EmuGSS_TCProgram19_414BuildTCAppDataER17tc_mem_descriptor
FNDA:0,_ZN20EmuGSS_TCProgram19_414BuildTCAppDataER17tc_mem_descriptor
FN:165,_ZN20EmuGSS_TCProgram19_5C2EjPKct
FNDA:0,_ZN20EmuGSS_TCProgram19_5C2EjPKct
FN:174,_ZN20EmuGSS_TCProgram19_514BuildTCAppDataER17tc_mem_descriptor
FNDA:0,_ZN20EmuGSS_TCProgram19_514BuildTCAppDataER17tc_mem_descriptor
FN:182,_Z19EmuGSS_ShowServ19TMPK17tm_mem_descriptor
FNDA:0,_Z19EmuGSS_ShowServ19TMPK17tm_mem_descriptor
FN:189,_ZN18GSSServ19TMHandlerC2EPKh
FNDA:0,_ZN18GSSServ19TMHandlerC2EPKh
FN:194,_ZN18GSSServ19TMHandler6ShowTMEv
FNDA:0,_ZN18GSSServ19TMHandler6ShowTMEv
DA:53,0
DA:55,0
DA:57,0
DA:59,0
DA:60,0
DA:61,0
DA:63,0
DA:68,0
DA:70,0
DA:71,0
DA:73,0
DA:74,0
DA:75,0
DA:77,0
DA:79,0
DA:80,0
DA:82,0
DA:83,0
DA:84,0
DA:86,0
DA:88,0
DA:93,0
DA:95,0
DA:96,0
DA:98,0
DA:100,0
DA:101,0
DA:103,0
DA:107,0
DA:108,0
DA:110,0
DA:111,0
DA:112,0
DA:114,0
DA:116,0
DA:121,0
DA:123,0
DA:124,0
DA:126,0
DA:128,0
DA:129,0
DA:131,0
DA:134,0
DA:135,0
DA:137,0
DA:139,0
DA:140,0
DA:141,0
DA:143,0
DA:144,0
DA:145,0
DA:147,0
DA:149,0
DA:150,0
DA:152,0
DA:154,0
DA:155,0
DA:156,0
DA:158,0
DA:160,0
DA:161,0
DA:163,0
DA:165,0
DA:166,0
DA:168,0
DA:170,0
DA:171,0
DA:172,0
DA:174,0
DA:176,0
DA:177,0
DA:179,0
DA:182,0
DA:184,0
DA:185,0
DA:187,0
DA:189,0
DA:190,0
DA:192,0
DA:194,0
DA:196,0
end_of_record
TN:
SF:/home/atcsol/git/proyectofinal2.0/uah_photsat_freertos/llsw/emu_gss/src/emu_gss_pus_service02.cpp
FN:34,_ZN19EmuGSS_TCProgram2_1C2EjPKc20DeviceCommandOnOff_t
FNDA:0,_ZN19EmuGSS_TCProgram2_1C2EjPKc20DeviceCommandOnOff_t
FN:48,_ZN19EmuGSS_TCProgram2_1C2E20DeviceCommandOnOff_t
FNDA:0,_ZN19EmuGSS_TCProgram2_1C2E20DeviceCommandOnOff_t
FN:63,_ZN19EmuGSS_TCProgram2_114BuildTCAppDataER17tc_mem_descriptor
FNDA:0,_ZN19EmuGSS_TCProgram2_114BuildTCAppDataER17tc_mem_descriptor
FN:73,_ZN30EmuGSS_TCProgram2_1_BadAddressC2EjPKcj
FNDA:0,_ZN30EmuGSS_TCProgram2_1_BadAddressC2EjPKcj
FN:83,_ZN30EmuGSS_TCProgram2_1_BadAddress14BuildTCAppDataER17tc_mem_descriptor
FNDA:0,_ZN30EmuGSS_TCProgram2_1_BadAddress14BuildTCAppDataER17tc_mem_descriptor
DA:34,0
DA:35,0
DA:37,0
DA:39,0
DA:40,0
DA:42,0
DA:44,0
DA:45,0
DA:48,0
DA:50,0
DA:52,0
DA:54,0
DA:55,0
DA:57,0
DA:61,0
DA:63,0
DA:66,0
DA:68,0
DA:70,0
DA:73,0
DA:74,0
DA:76,0
DA:78,0
DA:80,0
DA:81,0
DA:83,0
DA:86,0
DA:88,0
DA:90,0
end_of_record
TN:
SF:/home/atcsol/git/proyectofinal2.0/uah_photsat_freertos/llsw/emu_gss/src/emu_gss_pus_service01.cpp
FN:34,_Z18EmuGSS_ShowServ1TMPK17tm_mem_descriptor
FNDA:6,_Z18EmuGSS_ShowServ1TMPK17tm_mem_descriptor
FN:41,_ZN17GSSServ1TMHandlerC2EPKh
FNDA:6,_ZN17GSSServ1TMHandlerC2EPKh
FN:46,_ZN17GSSServ1TMHandler6ShowTMEv
FNDA:6,_ZN17GSSServ1TMHandler6ShowTMEv
FN:66,_ZN17GSSServ1TMHandler10ShowTM_1_2Ev
FNDA:0,_ZN17GSSServ1TMHandler10ShowTM_1_2Ev
FN:101,_ZN17GSSServ1TMHandler10ShowTM_1_4Ev
FNDA:0,_ZN17GSSServ1TMHandler10ShowTM_1_4Ev
FN:202,_ZN17GSSServ1TMHandler10ShowTM_1_8Ev
FNDA:0,_ZN17GSSServ1TMHandler10ShowTM_1_8Ev
DA:34,6
DA:36,6
DA:37,6
DA:39,6
DA:41,6
DA:42,6
DA:44,6
DA:46,6
DA:49,6
DA:52,6
DA:54,6
DA:55,0
DA:56,0
DA:57,0
DA:58,0
DA:59,0
DA:60,0
DA:61,0
DA:62,0
DA:63,0
DA:65,6
DA:66,0
DA:68,0
DA:69,0
DA:70,0
DA:72,0
DA:73,0
DA:75,0
DA:77,0
DA:78,0
DA:80,0
DA:82,0
DA:83,0
DA:85,0
DA:87,0
DA:89,0
DA:91,0
DA:93,0
DA:95,0
DA:99,0
DA:101,0
DA:103,0
DA:104,0
DA:105,0
DA:107,0
DA:108,0
DA:110,0
DA:112,0
DA:113,0
DA:115,0
DA:117,0
DA:119,0
DA:121,0
DA:123,0
DA:125,0
DA:126,0
DA:128,0
DA:129,0
DA:133,0
DA:135,0
DA:136,0
DA:138,0
DA:140,0
DA:142,0
DA:144,0
DA:146,0
DA:148,0
DA:149,0
DA:151,0
DA:153,0
DA:155,0
DA:157,0
DA:159,0
DA:160,0
DA:162,0
DA:164,0
DA:166,0
DA:168,0
DA:170,0
DA:172,0
DA:174,0
DA:176,0
DA:178,0
DA:180,0
DA:182,0
DA:184,0
DA:186,0
DA:187,0
DA:189,0
DA:191,0
DA:192,0
DA:194,0
DA:195,0
DA:197,0
DA:202,0
DA:204,0
DA:205,0
DA:207,0
DA:209,0
DA:210,0
DA:212,0
DA:214,0
DA:215,0
DA:217,0
DA:219,0
DA:220,0
DA:222,0
DA:224,0
DA:226,0
DA:228,0
DA:230,0
DA:231,0
DA:233,0
DA:235,0
DA:237,0
DA:239,0
DA:241,0
DA:243,0
DA:247,0
DA:248,0
DA:251,0
end_of_record
TN:
SF:/home/atcsol/git/proyectofinal2.0/uah_photsat_freertos/llsw/emu_gss/src/emu_gss_tm_handler.cpp
FN:39,_ZN12GSSTMHandler10GetPUSTypeEPK17tm_mem_descriptor
FNDA:143,_ZN12GSSTMHandler10GetPUSTypeEPK17tm_mem_descriptor
FN:49,_ZN12GSSTMHandler13GetPUSSubtypeEPK17tm_mem_descriptor
FNDA:143,_ZN12GSSTMHandler13GetPUSSubtypeEPK17tm_mem_descriptor
FN:60,_ZN12GSSTMHandlerC2EPKh
FNDA:136,_ZN12GSSTMHandlerC2EPKh
FN:76,_ZN12GSSTMHandler24GetNextUInt8AppDataFieldEv
FNDA:387,_ZN12GSSTMHandler24GetNextUInt8AppDataFieldEv
FN:84,_ZN12GSSTMHandler25GetNextUInt16AppDataFieldEv
FNDA:142,_ZN12GSSTMHandler25GetNextUInt16AppDataFieldEv
FN:92,_ZN12GSSTMHandler25GetNextUInt32AppDataFieldEv
FNDA:0,_ZN12GSSTMHandler25GetNextUInt32AppDataFieldEv
FN:101,_ZN12GSSTMHandler25GetNextUInt64AppDataFieldEv
FNDA:0,_ZN12GSSTMHandler25GetNextUInt64AppDataFieldEv
FN:110,_ZN12GSSTMHandler23GetNextInt8AppDataFieldEv
FNDA:0,_ZN12GSSTMHandler23GetNextInt8AppDataFieldEv
FN:118,_ZN12GSSTMHandler24GetNextInt16AppDataFieldEv
FNDA:516,_ZN12GSSTMHandler24GetNextInt16AppDataFieldEv
FN:127,_ZN12GSSTMHandler24GetNextInt32AppDataFieldEv
FNDA:0,_ZN12GSSTMHandler24GetNextInt32AppDataFieldEv
FN:136,_ZN12GSSTMHandler24GetNextInt64AppDataFieldEv
FNDA:0,_ZN12GSSTMHandler24GetNextInt64AppDataFieldEv
DA:39,143
DA:41,143
DA:42,143
DA:43,143
DA:45,143
DA:49,143
DA:52,143
DA:53,143
DA:54,143
DA:56,143
DA:60,136
DA:62,136
DA:63,136
DA:64,136
DA:66,136
DA:67,136
DA:68,136
DA:70,136
DA:72,136
DA:74,136
DA:76,387
DA:79,387
DA:80,387
DA:81,387
DA:84,142
DA:87,142
DA:88,142
DA:89,142
DA:92,0
DA:95,0
DA:96,0
DA:97,0
DA:101,0
DA:104,0
DA:105,0
DA:106,0
DA:110,0
DA:112,0
DA:113,0
DA:114,0
DA:118,516
DA:121,516
DA:122,516
DA:123,516
DA:127,0
DA:130,0
DA:131,0
DA:132,0
DA:136,0
DA:139,0
DA:140,0
DA:141,0
end_of_record
TN:
SF:/home/atcsol/git/proyectofinal2.0/uah_photsat_freertos/llsw/emu_gss/src/emu_gss_pus_service04.cpp
FN:37,_ZN19EmuGSS_TCProgram4_1C2EjPKc
FNDA:0,_ZN19EmuGSS_TCProgram4_1C2EjPKc
FN:43,_ZN19EmuGSS_TCProgram4_114BuildTCAppDataER17tc_mem_descriptor
FNDA:0,_ZN19EmuGSS_TCProgram4_114BuildTCAppDataER17tc_mem_descriptor
FN:47,_ZN19EmuGSS_TCProgram4_6C2EjPKct
FNDA:0,_ZN19EmuGSS_TCProgram4_6C2EjPKct
FN:56,_ZN19EmuGSS_TCProgram4_614BuildTCAppDataER17tc_mem_descriptor
FNDA:0,_ZN19EmuGSS_TCProgram4_614BuildTCAppDataER17tc_mem_descriptor
FN:63,_ZN19EmuGSS_TCProgram4_7C2EjPKct
FNDA:0,_ZN19EmuGSS_TCProgram4_7C2EjPKct
FN:72,_ZN19EmuGSS_TCProgram4_714BuildTCAppDataER17tc_mem_descriptor
FNDA:0,_ZN19EmuGSS_TCProgram4_714BuildTCAppDataER17tc_mem_descriptor
FN:80,_Z18EmuGSS_ShowServ4TMPK17tm_mem_descriptor
FNDA:0,_Z18EmuGSS_ShowServ4TMPK17tm_mem_descriptor
FN:87,_ZN17GSSServ4TMHandlerC2EPKh
FNDA:0,_ZN17GSSServ4TMHandlerC2EPKh
FN:92,_ZN17GSSServ4TMHandler6ShowTMEv
FNDA:0,_ZN17GSSServ4TMHandler6ShowTMEv
FN:102,_ZN17GSSServ4TMHandler10ShowTM_4_2Ev
FNDA:0,_ZN17GSSServ4TMHandler10ShowTM_4_2Ev
FN:123,_ZN17GSSServ4TMHandler19ShowTM_4_2_PIDValueEv
FNDA:0,_ZN17GSSServ4TMHandler19ShowTM_4_2_PIDValueEv
DA:37,0
DA:38,0
DA:40,0
DA:41,0
DA:43,0
DA:45,0
DA:47,0
DA:48,0
DA:50,0
DA:52,0
DA:53,0
DA:54,0
DA:56,0
DA:58,0
DA:59,0
DA:61,0
DA:63,0
DA:64,0
DA:66,0
DA:68,0
DA:69,0
DA:70,0
DA:72,0
DA:74,0
DA:75,0
DA:77,0
DA:80,0
DA:82,0
DA:83,0
DA:85,0
DA:87,0
DA:88,0
DA:90,0
DA:92,0
DA:94,0
DA:95,0
DA:96,0
DA:97,0
DA:100,0
DA:102,0
DA:104,0
DA:105,0
DA:107,0
DA:108,0
DA:110,0
DA:112,0
DA:114,0
DA:116,0
DA:117,0
DA:118,0
DA:121,0
DA:123,0
DA:129,0
DA:131,0
DA:133,0
DA:135,0
DA:136,0
DA:138,0
DA:140,0
DA:141,0
DA:142,0
DA:144,0
DA:145,0
DA:146,0
DA:148,0
DA:149,0
DA:151,0
DA:152,0
DA:154,0
DA:156,0
DA:157,0
DA:158,0
DA:160,0
DA:162,0
DA:163,0
DA:164,0
DA:166,0
DA:167,0
DA:168,0
DA:170,0
DA:171,0
DA:173,0
DA:174,0
DA:176,0
DA:178,0
DA:179,0
DA:180,0
DA:182,0
DA:183,0
DA:184,0
DA:187,0
end_of_record
TN:
SF:/home/atcsol/git/proyectofinal2.0/uah_photsat_freertos/llsw/emu_gss/src/emu_gss_pus_service17.cpp
FN:30,_ZN20EmuGSS_TCProgram17_1C2EjPKc
FNDA:0,_ZN20EmuGSS_TCProgram17_1C2EjPKc
FN:37,_ZN20EmuGSS_TCProgram17_114BuildTCAppDataER17tc_mem_descriptor
FNDA:0,_ZN20EmuGSS_TCProgram17_114BuildTCAppDataER17tc_mem_descriptor
FN:41,_ZN32EmuGSS_TCProgram17_1_DISABLE_1_7C2EjPKc
FNDA:0,_ZN32EmuGSS_TCProgram17_1_DISABLE_1_7C2EjPKc
FN:49,_ZN32EmuGSS_TCProgram17_1_DISABLE_1_714BuildTCAppDataER17tc_mem_descriptor
FNDA:0,_ZN32EmuGSS_TCProgram17_1_DISABLE_1_714BuildTCAppDataER17tc_mem_descriptor
FN:56,_ZN20EmuGSS_TCProgram17_3C2EjPKct
FNDA:0,_ZN20EmuGSS_TCProgram17_3C2EjPKct
FN:64,_ZN20EmuGSS_TCProgram17_314BuildTCAppDataER17tc_mem_descriptor
FNDA:0,_ZN20EmuGSS_TCProgram17_314BuildTCAppDataER17tc_mem_descriptor
DA:30,0
DA:31,0
DA:32,0
DA:34,0
DA:35,0
DA:37,0
DA:39,0
DA:41,0
DA:42,0
DA:43,0
DA:45,0
DA:46,0
DA:47,0
DA:49,0
DA:52,0
DA:56,0
DA:57,0
DA:58,0
DA:60,0
DA:61,0
DA:62,0
DA:64,0
DA:66,0
end_of_record
TN:
SF:/home/atcsol/git/proyectofinal2.0/uah_photsat_freertos/llsw/emu_gss/src/emu_gss_pus_service20.cpp
FN:39,_ZN20EmuGSS_TCProgram20_1C2EjPKct
FNDA:0,_ZN20EmuGSS_TCProgram20_1C2EjPKct
FN:48,_ZN20EmuGSS_TCProgram20_114BuildTCAppDataER17tc_mem_descriptor
FNDA:0,_ZN20EmuGSS_TCProgram20_114BuildTCAppDataER17tc_mem_descriptor
FN:55,_ZN26EmuGSS_TCProgram20_3_uint8C2EjPKcth
FNDA:0,_ZN26EmuGSS_TCProgram20_3_uint8C2EjPKcth
FN:66,_ZN26EmuGSS_TCProgram20_3_uint814BuildTCAppDataER17tc_mem_descriptor
FNDA:0,_ZN26EmuGSS_TCProgram20_3_uint814BuildTCAppDataER17tc_mem_descriptor
FN:75,_ZN27EmuGSS_TCProgram20_3_uint32C2EjPKctj
FNDA:0,_ZN27EmuGSS_TCProgram20_3_uint32C2EjPKctj
FN:86,_ZN27EmuGSS_TCProgram20_3_uint3214BuildTCAppDataER17tc_mem_descriptor
FNDA:0,_ZN27EmuGSS_TCProgram20_3_uint3214BuildTCAppDataER17tc_mem_descriptor
FN:95,_Z19EmuGSS_ShowServ20TMPK17tm_mem_descriptor
FNDA:0,_Z19EmuGSS_ShowServ20TMPK17tm_mem_descriptor
FN:102,_ZN18GSSServ20TMHandlerC2EPKh
FNDA:0,_ZN18GSSServ20TMHandlerC2EPKh
FN:107,_ZN18GSSServ20TMHandler6ShowTMEv
FNDA:0,_ZN18GSSServ20TMHandler6ShowTMEv
FN:117,_ZN18GSSServ20TMHandler11ShowTM_20_2Ev
FNDA:0,_ZN18GSSServ20TMHandler11ShowTM_20_2Ev
DA:39,0
DA:40,0
DA:42,0
DA:44,0
DA:45,0
DA:46,0
DA:48,0
DA:50,0
DA:51,0
DA:53,0
DA:55,0
DA:56,0
DA:58,0
DA:60,0
DA:61,0
DA:63,0
DA:64,0
DA:66,0
DA:69,0
DA:70,0
DA:71,0
DA:73,0
DA:75,0
DA:76,0
DA:78,0
DA:80,0
DA:81,0
DA:83,0
DA:84,0
DA:86,0
DA:89,0
DA:90,0
DA:91,0
DA:93,0
DA:95,0
DA:97,0
DA:98,0
DA:100,0
DA:102,0
DA:103,0
DA:105,0
DA:107,0
DA:109,0
DA:110,0
DA:111,0
DA:112,0
DA:115,0
DA:117,0
DA:122,0
DA:124,0
DA:126,0
DA:128,0
DA:132,0
DA:133,0
DA:134,0
DA:138,0
DA:139,0
DA:140,0
DA:144,0
DA:145,0
DA:147,0
DA:149,0
DA:150,0
DA:153,0
end_of_record
TN:
SF:/home/atcsol/git/proyectofinal2.0/uah_photsat_freertos/llsw/emu_gss/src/emu_gss_tc_program.cpp
FN:39,_ZN16EmuGSS_TCProgram21GetCurrentTCProgramedEv
FNDA:2,_ZN16EmuGSS_TCProgram21GetCurrentTCProgramedEv
FN:45,_ZN16EmuGSS_TCProgramC2EjhhtPKc
FNDA:2,_ZN16EmuGSS_TCProgramC2EjhhtPKc
FN:58,_ZN16EmuGSS_TCProgram21SetCurrentTCProgramedEj
FNDA:132,_ZN16EmuGSS_TCProgram21SetCurrentTCProgramedEj
FN:70,_ZN16EmuGSS_TCProgram10NewProgramEPS_
FNDA:2,_ZN16EmuGSS_TCProgram10NewProgramEPS_
FN:104,_ZN16EmuGSS_TCProgram7BuildTCER17tc_mem_descriptor
FNDA:2,_ZN16EmuGSS_TCProgram7BuildTCER17tc_mem_descriptor
FN:123,_ZN16EmuGSS_TCProgram16DisableAcceptACKEv
FNDA:0,_ZN16EmuGSS_TCProgram16DisableAcceptACKEv
FN:128,_ZN16EmuGSS_TCProgram19DisableExecStartACKEv
FNDA:0,_ZN16EmuGSS_TCProgram19DisableExecStartACKEv
FN:132,_ZN16EmuGSS_TCProgram18DisableExecProgACKEv
FNDA:0,_ZN16EmuGSS_TCProgram18DisableExecProgACKEv
FN:136,_ZN16EmuGSS_TCProgram24DisableExecCompletionACKEv
FNDA:0,_ZN16EmuGSS_TCProgram24DisableExecCompletionACKEv
FN:142,_ZN16EmuGSS_TCProgram17BuildTCPackHeaderER17tc_mem_descriptor
FNDA:2,_ZN16EmuGSS_TCProgram17BuildTCPackHeaderER17tc_mem_descriptor
FN:166,_ZN16EmuGSS_TCProgram15BuildTCDFHeaderER17tc_mem_descriptor
FNDA:2,_ZN16EmuGSS_TCProgram15BuildTCDFHeaderER17tc_mem_descriptor
FN:176,_ZN16EmuGSS_TCProgram12SetNextUInt8Eh
FNDA:1,_ZN16EmuGSS_TCProgram12SetNextUInt8Eh
FN:181,_ZN16EmuGSS_TCProgram13SetNextUInt16Et
FNDA:0,_ZN16EmuGSS_TCProgram13SetNextUInt16Et
FN:186,_ZN16EmuGSS_TCProgram13SetNextUInt32Ej
FNDA:0,_ZN16EmuGSS_TCProgram13SetNextUInt32Ej
FN:190,_ZN16EmuGSS_TCProgram13SetNextUInt64Em
FNDA:0,_ZN16EmuGSS_TCProgram13SetNextUInt64Em
FN:195,_ZN16EmuGSS_TCProgram11SetNextInt8Ea
FNDA:0,_ZN16EmuGSS_TCProgram11SetNextInt8Ea
FN:199,_ZN16EmuGSS_TCProgram12SetNextInt16Es
FNDA:2,_ZN16EmuGSS_TCProgram12SetNextInt16Es
FN:204,_ZN16EmuGSS_TCProgram12SetNextInt32Ei
FNDA:0,_ZN16EmuGSS_TCProgram12SetNextInt32Ei
FN:208,_ZN16EmuGSS_TCProgram12SetNextInt64El
FNDA:0,_ZN16EmuGSS_TCProgram12SetNextInt64El
FN:213,_ZN16EmuGSS_TCProgram12SetNextFloatERf
FNDA:0,_ZN16EmuGSS_TCProgram12SetNextFloatERf
DA:39,2
DA:41,2
DA:45,2
DA:46,2
DA:48,2
DA:49,2
DA:50,2
DA:51,2
DA:52,2
DA:53,2
DA:54,2
DA:55,2
DA:56,2
DA:58,132
DA:59,132
DA:60,132
DA:61,131
DA:62,2
DA:63,2
DA:64,2
DA:67,132
DA:70,2
DA:71,2
DA:73,2
DA:74,1
DA:75,1
DA:77,1
DA:79,1
DA:80,1
DA:81,2
DA:82,1
DA:83,0
DA:84,0
DA:86,0
DA:88,0
DA:89,0
DA:91,1
DA:92,1
DA:93,1
DA:94,1
DA:95,1
DA:96,1
DA:102,2
DA:104,2
DA:106,2
DA:108,2
DA:109,2
DA:110,2
DA:111,2
DA:113,2
DA:114,2
DA:115,2
DA:117,2
DA:118,2
DA:121,2
DA:123,0
DA:125,0
DA:127,0
DA:128,0
DA:130,0
DA:131,0
DA:132,0
DA:134,0
DA:135,0
DA:136,0
DA:138,0
DA:139,0
DA:142,2
DA:144,2
DA:145,2
DA:147,2
DA:150,2
DA:152,2
DA:153,2
DA:155,2
DA:158,2
DA:161,2
DA:165,2
DA:166,2
DA:168,2
DA:169,2
DA:170,2
DA:171,2
DA:172,2
DA:174,2
DA:176,1
DA:177,1
DA:178,1
DA:179,1
DA:181,0
DA:182,0
DA:183,0
DA:184,0
DA:186,0
DA:187,0
DA:188,0
DA:189,0
DA:190,0
DA:191,0
DA:192,0
DA:193,0
DA:195,0
DA:196,0
DA:197,0
DA:198,0
DA:199,2
DA:200,2
DA:201,2
DA:202,2
DA:204,0
DA:205,0
DA:206,0
DA:207,0
DA:208,0
DA:209,0
DA:210,0
DA:211,0
DA:213,0
DA:215,0
DA:216,0
DA:217,0
DA:218,0
end_of_record
